
Hurtiger_bil.elf:     file format elf32-avr

Sections:
Idx Name          Size      VMA       LMA       File off  Algn
  0 .text         00001870  00000000  00000000  00000094  2**1
                  CONTENTS, ALLOC, LOAD, READONLY, CODE
  1 .data         0000014a  00800060  00001870  00001904  2**0
                  CONTENTS, ALLOC, LOAD, DATA
  2 .bss          00000244  008001aa  008001aa  00001a4e  2**0
                  ALLOC
  3 .comment      0000005c  00000000  00000000  00001a4e  2**0
                  CONTENTS, READONLY
  4 .note.gnu.avr.deviceinfo 0000003c  00000000  00000000  00001aac  2**2
                  CONTENTS, READONLY
  5 .debug_aranges 00000180  00000000  00000000  00001ae8  2**0
                  CONTENTS, READONLY, DEBUGGING
  6 .debug_info   000011cd  00000000  00000000  00001c68  2**0
                  CONTENTS, READONLY, DEBUGGING
  7 .debug_abbrev 00000b90  00000000  00000000  00002e35  2**0
                  CONTENTS, READONLY, DEBUGGING
  8 .debug_line   00000b7e  00000000  00000000  000039c5  2**0
                  CONTENTS, READONLY, DEBUGGING
  9 .debug_frame  000003a8  00000000  00000000  00004544  2**2
                  CONTENTS, READONLY, DEBUGGING
 10 .debug_str    000005c8  00000000  00000000  000048ec  2**0
                  CONTENTS, READONLY, DEBUGGING
 11 .debug_loc    0000075a  00000000  00000000  00004eb4  2**0
                  CONTENTS, READONLY, DEBUGGING
 12 .debug_ranges 00000118  00000000  00000000  0000560e  2**0
                  CONTENTS, READONLY, DEBUGGING

Disassembly of section .text:

00000000 <__vectors>:
       0:	0c 94 a7 00 	jmp	0x14e	; 0x14e <__ctors_end>
       4:	0c 94 22 02 	jmp	0x444	; 0x444 <__vector_1>
       8:	0c 94 c4 00 	jmp	0x188	; 0x188 <__bad_interrupt>
       c:	0c 94 c4 00 	jmp	0x188	; 0x188 <__bad_interrupt>
      10:	0c 94 c4 00 	jmp	0x188	; 0x188 <__bad_interrupt>
      14:	0c 94 c4 00 	jmp	0x188	; 0x188 <__bad_interrupt>
      18:	0c 94 92 03 	jmp	0x724	; 0x724 <__vector_6>
      1c:	0c 94 c4 00 	jmp	0x188	; 0x188 <__bad_interrupt>
      20:	0c 94 c4 00 	jmp	0x188	; 0x188 <__bad_interrupt>
      24:	0c 94 e0 03 	jmp	0x7c0	; 0x7c0 <__vector_9>
      28:	0c 94 c4 00 	jmp	0x188	; 0x188 <__bad_interrupt>
      2c:	0c 94 bd 04 	jmp	0x97a	; 0x97a <__vector_11>
      30:	0c 94 c4 00 	jmp	0x188	; 0x188 <__bad_interrupt>
      34:	0c 94 c4 00 	jmp	0x188	; 0x188 <__bad_interrupt>
      38:	0c 94 c4 00 	jmp	0x188	; 0x188 <__bad_interrupt>
      3c:	0c 94 c4 00 	jmp	0x188	; 0x188 <__bad_interrupt>
      40:	0c 94 c4 00 	jmp	0x188	; 0x188 <__bad_interrupt>
      44:	0c 94 c4 00 	jmp	0x188	; 0x188 <__bad_interrupt>
      48:	0c 94 c4 00 	jmp	0x188	; 0x188 <__bad_interrupt>
      4c:	0c 94 c4 00 	jmp	0x188	; 0x188 <__bad_interrupt>
      50:	0c 94 c4 00 	jmp	0x188	; 0x188 <__bad_interrupt>

00000054 <__trampolines_end>:
      54:	00 40       	sbci	r16, 0x00	; 0
      56:	7a 10       	cpse	r7, r10
      58:	f3 5a       	subi	r31, 0xA3	; 163
      5a:	00 a0       	ldd	r0, Z+32	; 0x20
      5c:	72 4e       	sbci	r23, 0xE2	; 226
      5e:	18 09       	sbc	r17, r8
      60:	00 10       	cpse	r0, r0
      62:	a5 d4       	rcall	.+2378   	; 0x9ae <timer2_init+0x4>
      64:	e8 00       	.word	0x00e8	; ????
      66:	00 e8       	ldi	r16, 0x80	; 128
      68:	76 48       	sbci	r23, 0x86	; 134
      6a:	17 00       	.word	0x0017	; ????
      6c:	00 e4       	ldi	r16, 0x40	; 64
      6e:	0b 54       	subi	r16, 0x4B	; 75
      70:	02 00       	.word	0x0002	; ????
      72:	00 ca       	rjmp	.-3072   	; 0xfffff474 <__eeprom_end+0xff7ef474>
      74:	9a 3b       	cpi	r25, 0xBA	; 186
      76:	00 00       	nop
      78:	00 e1       	ldi	r16, 0x10	; 16
      7a:	f5 05       	cpc	r31, r5
      7c:	00 00       	nop
      7e:	80 96       	adiw	r24, 0x20	; 32
      80:	98 00       	.word	0x0098	; ????
      82:	00 00       	nop
      84:	40 42       	sbci	r20, 0x20	; 32
      86:	0f 00       	.word	0x000f	; ????
      88:	00 00       	nop
      8a:	a0 86       	std	Z+8, r10	; 0x08
      8c:	01 00       	.word	0x0001	; ????
      8e:	00 00       	nop
      90:	10 27       	eor	r17, r16
      92:	00 00       	nop
      94:	00 00       	nop
      96:	e8 03       	fmulsu	r22, r16
      98:	00 00       	nop
      9a:	00 00       	nop
      9c:	64 00       	.word	0x0064	; ????
      9e:	00 00       	nop
      a0:	00 00       	nop
      a2:	0a 00       	.word	0x000a	; ????
      a4:	00 00       	nop
      a6:	00 00       	nop
      a8:	01 00       	.word	0x0001	; ????
      aa:	00 00       	nop
      ac:	00 00       	nop
      ae:	2c 76       	andi	r18, 0x6C	; 108
      b0:	d8 88       	ldd	r13, Y+16	; 0x10
      b2:	dc 67       	ori	r29, 0x7C	; 124
      b4:	4f 08       	sbc	r4, r15
      b6:	23 df       	rcall	.-442    	; 0xfffffefe <__eeprom_end+0xff7efefe>
      b8:	c1 df       	rcall	.-126    	; 0x3c <__FUSE_REGION_LENGTH__+0x3a>
      ba:	ae 59       	subi	r26, 0x9E	; 158
      bc:	e1 b1       	in	r30, 0x01	; 1
      be:	b7 96       	adiw	r30, 0x27	; 39
      c0:	e5 e3       	ldi	r30, 0x35	; 53
      c2:	e4 53       	subi	r30, 0x34	; 52
      c4:	c6 3a       	cpi	r28, 0xA6	; 166
      c6:	e6 51       	subi	r30, 0x16	; 22
      c8:	99 76       	andi	r25, 0x69	; 105
      ca:	96 e8       	ldi	r25, 0x86	; 134
      cc:	e6 c2       	rjmp	.+1484   	; 0x69a <main+0x1f2>
      ce:	84 26       	eor	r8, r20
      d0:	eb 89       	ldd	r30, Y+19	; 0x13
      d2:	8c 9b       	sbis	0x11, 4	; 17
      d4:	62 ed       	ldi	r22, 0xD2	; 210
      d6:	40 7c       	andi	r20, 0xC0	; 192
      d8:	6f fc       	.word	0xfc6f	; ????
      da:	ef bc       	out	0x2f, r14	; 47
      dc:	9c 9f       	mul	r25, r28
      de:	40 f2       	brcs	.-112    	; 0x70 <__trampolines_end+0x1c>
      e0:	ba a5       	ldd	r27, Y+42	; 0x2a
      e2:	6f a5       	ldd	r22, Y+47	; 0x2f
      e4:	f4 90       	lpm	r15, Z
      e6:	05 5a       	subi	r16, 0xA5	; 165
      e8:	2a f7       	brpl	.-54     	; 0xb4 <__trampolines_end+0x60>
      ea:	5c 93       	st	X, r21
      ec:	6b 6c       	ori	r22, 0xCB	; 203
      ee:	f9 67       	ori	r31, 0x79	; 121
      f0:	6d c1       	rjmp	.+730    	; 0x3cc <bane_run+0x3a>
      f2:	1b fc       	.word	0xfc1b	; ????
      f4:	e0 e4       	ldi	r30, 0x40	; 64
      f6:	0d 47       	sbci	r16, 0x7D	; 125
      f8:	fe f5       	brtc	.+126    	; 0x178 <.do_clear_bss_loop>
      fa:	20 e6       	ldi	r18, 0x60	; 96
      fc:	b5 00       	.word	0x00b5	; ????
      fe:	d0 ed       	ldi	r29, 0xD0	; 208
     100:	90 2e       	mov	r9, r16
     102:	03 00       	.word	0x0003	; ????
     104:	94 35       	cpi	r25, 0x54	; 84
     106:	77 05       	cpc	r23, r7
     108:	00 80       	ld	r0, Z
     10a:	84 1e       	adc	r8, r20
     10c:	08 00       	.word	0x0008	; ????
     10e:	00 20       	and	r0, r0
     110:	4e 0a       	sbc	r4, r30
     112:	00 00       	nop
     114:	00 c8       	rjmp	.-4096   	; 0xfffff116 <__eeprom_end+0xff7ef116>
     116:	0c 33       	cpi	r16, 0x3C	; 60
     118:	33 33       	cpi	r19, 0x33	; 51
     11a:	33 0f       	add	r19, r19
     11c:	98 6e       	ori	r25, 0xE8	; 232
     11e:	12 83       	std	Z+2, r17	; 0x02
     120:	11 41       	sbci	r17, 0x11	; 17
     122:	ef 8d       	ldd	r30, Y+31	; 0x1f
     124:	21 14       	cp	r2, r1
     126:	89 3b       	cpi	r24, 0xB9	; 185
     128:	e6 55       	subi	r30, 0x56	; 86
     12a:	16 cf       	rjmp	.-468    	; 0xffffff58 <__eeprom_end+0xff7eff58>
     12c:	fe e6       	ldi	r31, 0x6E	; 110
     12e:	db 18       	sub	r13, r11
     130:	d1 84       	ldd	r13, Z+9	; 0x09
     132:	4b 38       	cpi	r20, 0x8B	; 139
     134:	1b f7       	brvc	.-58     	; 0xfc <__trampolines_end+0xa8>
     136:	7c 1d       	adc	r23, r12
     138:	90 1d       	adc	r25, r0
     13a:	a4 bb       	out	0x14, r26	; 20
     13c:	e4 24       	eor	r14, r4
     13e:	20 32       	cpi	r18, 0x20	; 32
     140:	84 72       	andi	r24, 0x24	; 36
     142:	5e 22       	and	r5, r30
     144:	81 00       	.word	0x0081	; ????
     146:	c9 f1       	breq	.+114    	; 0x1ba <bane_opmaaling+0xc>
     148:	24 ec       	ldi	r18, 0xC4	; 196
     14a:	a1 e5       	ldi	r26, 0x51	; 81
     14c:	3d 27       	eor	r19, r29

0000014e <__ctors_end>:
     14e:	11 24       	eor	r1, r1
     150:	1f be       	out	0x3f, r1	; 63
     152:	cf e5       	ldi	r28, 0x5F	; 95
     154:	d8 e0       	ldi	r29, 0x08	; 8
     156:	de bf       	out	0x3e, r29	; 62
     158:	cd bf       	out	0x3d, r28	; 61

0000015a <__do_copy_data>:
     15a:	11 e0       	ldi	r17, 0x01	; 1
     15c:	a0 e6       	ldi	r26, 0x60	; 96
     15e:	b0 e0       	ldi	r27, 0x00	; 0
     160:	e0 e7       	ldi	r30, 0x70	; 112
     162:	f8 e1       	ldi	r31, 0x18	; 24
     164:	02 c0       	rjmp	.+4      	; 0x16a <__do_copy_data+0x10>
     166:	05 90       	lpm	r0, Z+
     168:	0d 92       	st	X+, r0
     16a:	aa 3a       	cpi	r26, 0xAA	; 170
     16c:	b1 07       	cpc	r27, r17
     16e:	d9 f7       	brne	.-10     	; 0x166 <__do_copy_data+0xc>

00000170 <__do_clear_bss>:
     170:	23 e0       	ldi	r18, 0x03	; 3
     172:	aa ea       	ldi	r26, 0xAA	; 170
     174:	b1 e0       	ldi	r27, 0x01	; 1
     176:	01 c0       	rjmp	.+2      	; 0x17a <.do_clear_bss_start>

00000178 <.do_clear_bss_loop>:
     178:	1d 92       	st	X+, r1

0000017a <.do_clear_bss_start>:
     17a:	ae 3e       	cpi	r26, 0xEE	; 238
     17c:	b2 07       	cpc	r27, r18
     17e:	e1 f7       	brne	.-8      	; 0x178 <.do_clear_bss_loop>
     180:	0e 94 54 02 	call	0x4a8	; 0x4a8 <main>
     184:	0c 94 36 0c 	jmp	0x186c	; 0x186c <_exit>

00000188 <__bad_interrupt>:
     188:	0c 94 00 00 	jmp	0	; 0x0 <__vectors>

0000018c <ADC_Init>:

#include "adc.h"

void ADC_Init(void)
{
	ADMUX = 0;		// AVCC reference
     18c:	17 b8       	out	0x07, r1	; 7
	ADCSRA = (1 << ADEN) |		// Enables the ADC
     18e:	87 e8       	ldi	r24, 0x87	; 135
     190:	86 b9       	out	0x06, r24	; 6
     192:	08 95       	ret

00000194 <ADC_Read>:
			(1 << ADPS2) | (1 << ADPS1) | (1 << ADPS0);		// Sets prescaler to 128 -> ADC at 128 kHz 
}

uint16_t ADC_Read(uint16_t channel)
{
	ADMUX = (ADMUX & 0xF0) | (channel & 0x0F);	// Select channel
     194:	97 b1       	in	r25, 0x07	; 7
     196:	90 7f       	andi	r25, 0xF0	; 240
     198:	8f 70       	andi	r24, 0x0F	; 15
     19a:	89 2b       	or	r24, r25
     19c:	87 b9       	out	0x07, r24	; 7
	ADCSRA |= (1 << ADSC);						// Start conversion
     19e:	86 b1       	in	r24, 0x06	; 6
     1a0:	80 64       	ori	r24, 0x40	; 64
     1a2:	86 b9       	out	0x06, r24	; 6
	while (ADCSRA & (1 << ADSC));				
     1a4:	36 99       	sbic	0x06, 6	; 6
     1a6:	fe cf       	rjmp	.-4      	; 0x1a4 <ADC_Read+0x10>
	return ADCW;								// Return 10-bit result
     1a8:	84 b1       	in	r24, 0x04	; 4
     1aa:	95 b1       	in	r25, 0x05	; 5
     1ac:	08 95       	ret

000001ae <bane_opmaaling>:
}

void bane_reset(void)
{
	bane_index = 0;
	state = LIGE;
     1ae:	20 91 ae 01 	lds	r18, 0x01AE	; 0x8001ae <state>
     1b2:	21 11       	cpse	r18, r1
     1b4:	19 c0       	rjmp	.+50     	; 0x1e8 <bane_opmaaling+0x3a>
     1b6:	89 35       	cpi	r24, 0x59	; 89
     1b8:	22 e0       	ldi	r18, 0x02	; 2
     1ba:	92 07       	cpc	r25, r18
     1bc:	a8 f0       	brcs	.+42     	; 0x1e8 <bane_opmaaling+0x3a>
     1be:	21 e0       	ldi	r18, 0x01	; 1
     1c0:	20 93 ae 01 	sts	0x01AE, r18	; 0x8001ae <state>
     1c4:	e0 91 af 01 	lds	r30, 0x01AF	; 0x8001af <bane_index>
     1c8:	e2 33       	cpi	r30, 0x32	; 50
     1ca:	70 f4       	brcc	.+28     	; 0x1e8 <bane_opmaaling+0x3a>
     1cc:	2e 0f       	add	r18, r30
     1ce:	20 93 af 01 	sts	0x01AF, r18	; 0x8001af <bane_index>
     1d2:	f0 e0       	ldi	r31, 0x00	; 0
     1d4:	20 91 0b 02 	lds	r18, 0x020B	; 0x80020b <Bil+0x18>
     1d8:	30 91 0c 02 	lds	r19, 0x020C	; 0x80020c <Bil+0x19>
     1dc:	ee 0f       	add	r30, r30
     1de:	ff 1f       	adc	r31, r31
     1e0:	e3 5f       	subi	r30, 0xF3	; 243
     1e2:	fd 4f       	sbci	r31, 0xFD	; 253
     1e4:	31 83       	std	Z+1, r19	; 0x01
     1e6:	20 83       	st	Z, r18
     1e8:	20 91 ae 01 	lds	r18, 0x01AE	; 0x8001ae <state>
     1ec:	21 11       	cpse	r18, r1
     1ee:	19 c0       	rjmp	.+50     	; 0x222 <bane_opmaaling+0x74>
     1f0:	8c 32       	cpi	r24, 0x2C	; 44
     1f2:	21 e0       	ldi	r18, 0x01	; 1
     1f4:	92 07       	cpc	r25, r18
     1f6:	a8 f4       	brcc	.+42     	; 0x222 <bane_opmaaling+0x74>
     1f8:	21 e0       	ldi	r18, 0x01	; 1
     1fa:	20 93 ae 01 	sts	0x01AE, r18	; 0x8001ae <state>
     1fe:	e0 91 af 01 	lds	r30, 0x01AF	; 0x8001af <bane_index>
     202:	e2 33       	cpi	r30, 0x32	; 50
     204:	70 f4       	brcc	.+28     	; 0x222 <bane_opmaaling+0x74>
     206:	2e 0f       	add	r18, r30
     208:	20 93 af 01 	sts	0x01AF, r18	; 0x8001af <bane_index>
     20c:	f0 e0       	ldi	r31, 0x00	; 0
     20e:	20 91 0b 02 	lds	r18, 0x020B	; 0x80020b <Bil+0x18>
     212:	30 91 0c 02 	lds	r19, 0x020C	; 0x80020c <Bil+0x19>
     216:	ee 0f       	add	r30, r30
     218:	ff 1f       	adc	r31, r31
     21a:	e3 5f       	subi	r30, 0xF3	; 243
     21c:	fd 4f       	sbci	r31, 0xFD	; 253
     21e:	31 83       	std	Z+1, r19	; 0x01
     220:	20 83       	st	Z, r18
     222:	20 91 ae 01 	lds	r18, 0x01AE	; 0x8001ae <state>
     226:	21 30       	cpi	r18, 0x01	; 1
     228:	e1 f4       	brne	.+56     	; 0x262 <bane_opmaaling+0xb4>
     22a:	8d 32       	cpi	r24, 0x2D	; 45
     22c:	21 e0       	ldi	r18, 0x01	; 1
     22e:	92 07       	cpc	r25, r18
     230:	c0 f0       	brcs	.+48     	; 0x262 <bane_opmaaling+0xb4>
     232:	88 35       	cpi	r24, 0x58	; 88
     234:	92 40       	sbci	r25, 0x02	; 2
     236:	a8 f4       	brcc	.+42     	; 0x262 <bane_opmaaling+0xb4>
     238:	10 92 ae 01 	sts	0x01AE, r1	; 0x8001ae <state>
     23c:	e0 91 af 01 	lds	r30, 0x01AF	; 0x8001af <bane_index>
     240:	e2 33       	cpi	r30, 0x32	; 50
     242:	78 f4       	brcc	.+30     	; 0x262 <bane_opmaaling+0xb4>
     244:	81 e0       	ldi	r24, 0x01	; 1
     246:	8e 0f       	add	r24, r30
     248:	80 93 af 01 	sts	0x01AF, r24	; 0x8001af <bane_index>
     24c:	f0 e0       	ldi	r31, 0x00	; 0
     24e:	80 91 0b 02 	lds	r24, 0x020B	; 0x80020b <Bil+0x18>
     252:	90 91 0c 02 	lds	r25, 0x020C	; 0x80020c <Bil+0x19>
     256:	ee 0f       	add	r30, r30
     258:	ff 1f       	adc	r31, r31
     25a:	e3 5f       	subi	r30, 0xF3	; 243
     25c:	fd 4f       	sbci	r31, 0xFD	; 253
     25e:	91 83       	std	Z+1, r25	; 0x01
     260:	80 83       	st	Z, r24
     262:	08 95       	ret

00000264 <bane_build_segments>:
uint16_t track_length = 0;

	
void bane_build_segments(void)
{
	segment_count = 0;
     264:	10 92 ad 01 	sts	0x01AD, r1	; 0x8001ad <segment_count>
		
	for (int i = 0; i < bane_index -1; i += 2)
     268:	40 e0       	ldi	r20, 0x00	; 0
     26a:	50 e0       	ldi	r21, 0x00	; 0
     26c:	40 c0       	rjmp	.+128    	; 0x2ee <bane_build_segments+0x8a>
	{
		segments[segment_count].start = bane[i];
     26e:	20 91 ad 01 	lds	r18, 0x01AD	; 0x8001ad <segment_count>
     272:	82 2f       	mov	r24, r18
     274:	90 e0       	ldi	r25, 0x00	; 0
     276:	fa 01       	movw	r30, r20
     278:	ee 0f       	add	r30, r30
     27a:	ff 1f       	adc	r31, r31
     27c:	e3 5f       	subi	r30, 0xF3	; 243
     27e:	fd 4f       	sbci	r31, 0xFD	; 253
     280:	60 81       	ld	r22, Z
     282:	71 81       	ldd	r23, Z+1	; 0x01
     284:	fc 01       	movw	r30, r24
     286:	ee 0f       	add	r30, r30
     288:	ff 1f       	adc	r31, r31
     28a:	ee 0f       	add	r30, r30
     28c:	ff 1f       	adc	r31, r31
     28e:	e8 0f       	add	r30, r24
     290:	f9 1f       	adc	r31, r25
     292:	ef 58       	subi	r30, 0x8F	; 143
     294:	fd 4f       	sbci	r31, 0xFD	; 253
     296:	71 83       	std	Z+1, r23	; 0x01
     298:	60 83       	st	Z, r22
		segments[segment_count].end   = bane[i+1];
     29a:	da 01       	movw	r26, r20
     29c:	11 96       	adiw	r26, 0x01	; 1
     29e:	aa 0f       	add	r26, r26
     2a0:	bb 1f       	adc	r27, r27
     2a2:	a3 5f       	subi	r26, 0xF3	; 243
     2a4:	bd 4f       	sbci	r27, 0xFD	; 253
     2a6:	6d 91       	ld	r22, X+
     2a8:	7c 91       	ld	r23, X
     2aa:	73 83       	std	Z+3, r23	; 0x03
     2ac:	62 83       	std	Z+2, r22	; 0x02
		if (segment_count % 2 == 1)
     2ae:	20 ff       	sbrs	r18, 0
     2b0:	0d c0       	rjmp	.+26     	; 0x2cc <bane_build_segments+0x68>
		{
			segments[segment_count].speed = 255; 
     2b2:	fc 01       	movw	r30, r24
     2b4:	ee 0f       	add	r30, r30
     2b6:	ff 1f       	adc	r31, r31
     2b8:	ee 0f       	add	r30, r30
     2ba:	ff 1f       	adc	r31, r31
     2bc:	8e 0f       	add	r24, r30
     2be:	9f 1f       	adc	r25, r31
     2c0:	fc 01       	movw	r30, r24
     2c2:	ef 58       	subi	r30, 0x8F	; 143
     2c4:	fd 4f       	sbci	r31, 0xFD	; 253
     2c6:	8f ef       	ldi	r24, 0xFF	; 255
     2c8:	84 83       	std	Z+4, r24	; 0x04
     2ca:	0c c0       	rjmp	.+24     	; 0x2e4 <bane_build_segments+0x80>
		} else {
			segments[segment_count].speed = 60;
     2cc:	fc 01       	movw	r30, r24
     2ce:	ee 0f       	add	r30, r30
     2d0:	ff 1f       	adc	r31, r31
     2d2:	ee 0f       	add	r30, r30
     2d4:	ff 1f       	adc	r31, r31
     2d6:	8e 0f       	add	r24, r30
     2d8:	9f 1f       	adc	r25, r31
     2da:	fc 01       	movw	r30, r24
     2dc:	ef 58       	subi	r30, 0x8F	; 143
     2de:	fd 4f       	sbci	r31, 0xFD	; 253
     2e0:	8c e3       	ldi	r24, 0x3C	; 60
     2e2:	84 83       	std	Z+4, r24	; 0x04
		}
		
		segment_count++;
     2e4:	2f 5f       	subi	r18, 0xFF	; 255
     2e6:	20 93 ad 01 	sts	0x01AD, r18	; 0x8001ad <segment_count>
	
void bane_build_segments(void)
{
	segment_count = 0;
		
	for (int i = 0; i < bane_index -1; i += 2)
     2ea:	4e 5f       	subi	r20, 0xFE	; 254
     2ec:	5f 4f       	sbci	r21, 0xFF	; 255
     2ee:	80 91 af 01 	lds	r24, 0x01AF	; 0x8001af <bane_index>
     2f2:	90 e0       	ldi	r25, 0x00	; 0
     2f4:	01 97       	sbiw	r24, 0x01	; 1
     2f6:	48 17       	cp	r20, r24
     2f8:	59 07       	cpc	r21, r25
     2fa:	0c f4       	brge	.+2      	; 0x2fe <bane_build_segments+0x9a>
     2fc:	b8 cf       	rjmp	.-144    	; 0x26e <bane_build_segments+0xa>
			segments[segment_count].speed = 60;
		}
		
		segment_count++;
	}
	if (segment_count > 0)
     2fe:	80 91 ad 01 	lds	r24, 0x01AD	; 0x8001ad <segment_count>
     302:	88 23       	and	r24, r24
     304:	91 f0       	breq	.+36     	; 0x32a <bane_build_segments+0xc6>
	{
	track_length = segments[segment_count - 1].end;
     306:	90 e0       	ldi	r25, 0x00	; 0
     308:	01 97       	sbiw	r24, 0x01	; 1
     30a:	fc 01       	movw	r30, r24
     30c:	ee 0f       	add	r30, r30
     30e:	ff 1f       	adc	r31, r31
     310:	ee 0f       	add	r30, r30
     312:	ff 1f       	adc	r31, r31
     314:	8e 0f       	add	r24, r30
     316:	9f 1f       	adc	r25, r31
     318:	fc 01       	movw	r30, r24
     31a:	ef 58       	subi	r30, 0x8F	; 143
     31c:	fd 4f       	sbci	r31, 0xFD	; 253
     31e:	82 81       	ldd	r24, Z+2	; 0x02
     320:	93 81       	ldd	r25, Z+3	; 0x03
     322:	90 93 ab 01 	sts	0x01AB, r25	; 0x8001ab <__data_end+0x1>
     326:	80 93 aa 01 	sts	0x01AA, r24	; 0x8001aa <__data_end>
     32a:	08 95       	ret

0000032c <find_segment>:
}
//her finder den hvor bilen befinder sig pĂĄ banen gennem segmenter
	
int find_segment(uint16_t odo)
{
	uint16_t position = odo % track_length;
     32c:	60 91 aa 01 	lds	r22, 0x01AA	; 0x8001aa <__data_end>
     330:	70 91 ab 01 	lds	r23, 0x01AB	; 0x8001ab <__data_end+0x1>
     334:	0e 94 d8 06 	call	0xdb0	; 0xdb0 <__udivmodhi4>
	
	for (int i = 0; i < segment_count; i ++)
     338:	20 e0       	ldi	r18, 0x00	; 0
     33a:	30 e0       	ldi	r19, 0x00	; 0
     33c:	1e c0       	rjmp	.+60     	; 0x37a <find_segment+0x4e>
	{
		if (position >= segments[i].start && position < segments[i].end)
     33e:	f9 01       	movw	r30, r18
     340:	ee 0f       	add	r30, r30
     342:	ff 1f       	adc	r31, r31
     344:	ee 0f       	add	r30, r30
     346:	ff 1f       	adc	r31, r31
     348:	e2 0f       	add	r30, r18
     34a:	f3 1f       	adc	r31, r19
     34c:	ef 58       	subi	r30, 0x8F	; 143
     34e:	fd 4f       	sbci	r31, 0xFD	; 253
     350:	40 81       	ld	r20, Z
     352:	51 81       	ldd	r21, Z+1	; 0x01
     354:	84 17       	cp	r24, r20
     356:	95 07       	cpc	r25, r21
     358:	70 f0       	brcs	.+28     	; 0x376 <find_segment+0x4a>
     35a:	f9 01       	movw	r30, r18
     35c:	ee 0f       	add	r30, r30
     35e:	ff 1f       	adc	r31, r31
     360:	ee 0f       	add	r30, r30
     362:	ff 1f       	adc	r31, r31
     364:	e2 0f       	add	r30, r18
     366:	f3 1f       	adc	r31, r19
     368:	ef 58       	subi	r30, 0x8F	; 143
     36a:	fd 4f       	sbci	r31, 0xFD	; 253
     36c:	42 81       	ldd	r20, Z+2	; 0x02
     36e:	53 81       	ldd	r21, Z+3	; 0x03
     370:	84 17       	cp	r24, r20
     372:	95 07       	cpc	r25, r21
     374:	58 f0       	brcs	.+22     	; 0x38c <find_segment+0x60>
	
int find_segment(uint16_t odo)
{
	uint16_t position = odo % track_length;
	
	for (int i = 0; i < segment_count; i ++)
     376:	2f 5f       	subi	r18, 0xFF	; 255
     378:	3f 4f       	sbci	r19, 0xFF	; 255
     37a:	40 91 ad 01 	lds	r20, 0x01AD	; 0x8001ad <segment_count>
     37e:	50 e0       	ldi	r21, 0x00	; 0
     380:	24 17       	cp	r18, r20
     382:	35 07       	cpc	r19, r21
     384:	e4 f2       	brlt	.-72     	; 0x33e <find_segment+0x12>
		if (position >= segments[i].start && position < segments[i].end)
		{
			return i;
		}
	}
	return -1;
     386:	8f ef       	ldi	r24, 0xFF	; 255
     388:	9f ef       	ldi	r25, 0xFF	; 255
     38a:	08 95       	ret
	
	for (int i = 0; i < segment_count; i ++)
	{
		if (position >= segments[i].start && position < segments[i].end)
		{
			return i;
     38c:	82 2f       	mov	r24, r18
     38e:	93 2f       	mov	r25, r19
		}
	}
	return -1;
}
     390:	08 95       	ret

00000392 <bane_run>:
	
void bane_run(void)
{
     392:	cf 93       	push	r28
     394:	df 93       	push	r29
	int seg = find_segment(Bil.Odo);
     396:	80 91 0b 02 	lds	r24, 0x020B	; 0x80020b <Bil+0x18>
     39a:	90 91 0c 02 	lds	r25, 0x020C	; 0x80020c <Bil+0x19>
     39e:	0e 94 96 01 	call	0x32c	; 0x32c <find_segment>
     3a2:	ec 01       	movw	r28, r24
		
	if (seg >= 0){
     3a4:	99 23       	and	r25, r25
     3a6:	dc f1       	brlt	.+118    	; 0x41e <__EEPROM_REGION_LENGTH__+0x1e>
		pwm_set_speed(segments[seg].speed);
     3a8:	fc 01       	movw	r30, r24
     3aa:	ee 0f       	add	r30, r30
     3ac:	ff 1f       	adc	r31, r31
     3ae:	ee 0f       	add	r30, r30
     3b0:	ff 1f       	adc	r31, r31
     3b2:	e8 0f       	add	r30, r24
     3b4:	f9 1f       	adc	r31, r25
     3b6:	ef 58       	subi	r30, 0x8F	; 143
     3b8:	fd 4f       	sbci	r31, 0xFD	; 253
     3ba:	84 81       	ldd	r24, Z+4	; 0x04
     3bc:	0e 94 77 03 	call	0x6ee	; 0x6ee <pwm_set_speed>
			
		//printer en fart nĂĄr segmenterne Ă¦ndre sig
		if (seg != last_seg){
     3c0:	80 91 ac 01 	lds	r24, 0x01AC	; 0x8001ac <last_seg>
     3c4:	90 e0       	ldi	r25, 0x00	; 0
     3c6:	c8 17       	cp	r28, r24
     3c8:	d9 07       	cpc	r29, r25
     3ca:	49 f1       	breq	.+82     	; 0x41e <__EEPROM_REGION_LENGTH__+0x1e>
			last_seg = seg;
     3cc:	c0 93 ac 01 	sts	0x01AC, r28	; 0x8001ac <last_seg>
				
			snprintf(buffer, sizeof(buffer), "segment %d, speed %u\r\n", seg, segments[seg].speed);
     3d0:	fe 01       	movw	r30, r28
     3d2:	ee 0f       	add	r30, r30
     3d4:	ff 1f       	adc	r31, r31
     3d6:	ee 0f       	add	r30, r30
     3d8:	ff 1f       	adc	r31, r31
     3da:	ec 0f       	add	r30, r28
     3dc:	fd 1f       	adc	r31, r29
     3de:	ef 58       	subi	r30, 0x8F	; 143
     3e0:	fd 4f       	sbci	r31, 0xFD	; 253
     3e2:	84 81       	ldd	r24, Z+4	; 0x04
     3e4:	1f 92       	push	r1
     3e6:	8f 93       	push	r24
     3e8:	df 93       	push	r29
     3ea:	cf 93       	push	r28
     3ec:	80 e6       	ldi	r24, 0x60	; 96
     3ee:	90 e0       	ldi	r25, 0x00	; 0
     3f0:	9f 93       	push	r25
     3f2:	8f 93       	push	r24
     3f4:	1f 92       	push	r1
     3f6:	80 e4       	ldi	r24, 0x40	; 64
     3f8:	8f 93       	push	r24
     3fa:	8e ee       	ldi	r24, 0xEE	; 238
     3fc:	92 e0       	ldi	r25, 0x02	; 2
     3fe:	9f 93       	push	r25
     400:	8f 93       	push	r24
     402:	0e 94 0c 07 	call	0xe18	; 0xe18 <snprintf>
			USART_Print(buffer);
     406:	8e ee       	ldi	r24, 0xEE	; 238
     408:	92 e0       	ldi	r25, 0x02	; 2
     40a:	0e 94 e9 04 	call	0x9d2	; 0x9d2 <USART_Print>
     40e:	8d b7       	in	r24, 0x3d	; 61
     410:	9e b7       	in	r25, 0x3e	; 62
     412:	0a 96       	adiw	r24, 0x0a	; 10
     414:	0f b6       	in	r0, 0x3f	; 63
     416:	f8 94       	cli
     418:	9e bf       	out	0x3e, r25	; 62
     41a:	0f be       	out	0x3f, r0	; 63
     41c:	8d bf       	out	0x3d, r24	; 61
		}
	}
}
     41e:	df 91       	pop	r29
     420:	cf 91       	pop	r28
     422:	08 95       	ret

00000424 <INT0_init>:
// -------------------------
// INT0: registrerer mďż˝lstrengen
// -------------------------
void INT0_init(void)
{
	DDRD &= ~(1 << PD2);      // PD2 som input
     424:	81 b3       	in	r24, 0x11	; 17
     426:	8b 7f       	andi	r24, 0xFB	; 251
     428:	81 bb       	out	0x11, r24	; 17
	PORTD &= ~(1 << PD2);     // ingen pull-up (74HC14 driver signalet)
     42a:	82 b3       	in	r24, 0x12	; 18
     42c:	8b 7f       	andi	r24, 0xFB	; 251
     42e:	82 bb       	out	0x12, r24	; 18

	MCUCR |=  (1 << ISC01);   // falling edge
     430:	85 b7       	in	r24, 0x35	; 53
     432:	82 60       	ori	r24, 0x02	; 2
     434:	85 bf       	out	0x35, r24	; 53
	MCUCR &= ~(1 << ISC00);
     436:	85 b7       	in	r24, 0x35	; 53
     438:	8e 7f       	andi	r24, 0xFE	; 254
     43a:	85 bf       	out	0x35, r24	; 53

	GICR |= (1 << INT0);      // enable INT0
     43c:	8b b7       	in	r24, 0x3b	; 59
     43e:	80 64       	ori	r24, 0x40	; 64
     440:	8b bf       	out	0x3b, r24	; 59
     442:	08 95       	ret

00000444 <__vector_1>:
}

ISR(INT0_vect)
{
     444:	1f 92       	push	r1
     446:	0f 92       	push	r0
     448:	0f b6       	in	r0, 0x3f	; 63
     44a:	0f 92       	push	r0
     44c:	11 24       	eor	r1, r1
     44e:	8f 93       	push	r24
     450:	9f 93       	push	r25
	// Gem i historik (kan slďż˝s fra)
	if (lap_count < MAX_LAPS)
     452:	80 91 b0 01 	lds	r24, 0x01B0	; 0x8001b0 <lap_count>
     456:	90 91 b1 01 	lds	r25, 0x01B1	; 0x8001b1 <lap_count+0x1>
     45a:	c2 97       	sbiw	r24, 0x32	; 50
     45c:	50 f4       	brcc	.+20     	; 0x472 <__vector_1+0x2e>
	{
		lap_count++;
     45e:	80 91 b0 01 	lds	r24, 0x01B0	; 0x8001b0 <lap_count>
     462:	90 91 b1 01 	lds	r25, 0x01B1	; 0x8001b1 <lap_count+0x1>
     466:	01 96       	adiw	r24, 0x01	; 1
     468:	90 93 b1 01 	sts	0x01B1, r25	; 0x8001b1 <lap_count+0x1>
     46c:	80 93 b0 01 	sts	0x01B0, r24	; 0x8001b0 <lap_count>
     470:	0a c0       	rjmp	.+20     	; 0x486 <__vector_1+0x42>
	} else if (lap_count >= MAX_LAPS)
     472:	80 91 b0 01 	lds	r24, 0x01B0	; 0x8001b0 <lap_count>
     476:	90 91 b1 01 	lds	r25, 0x01B1	; 0x8001b1 <lap_count+0x1>
     47a:	c2 97       	sbiw	r24, 0x32	; 50
     47c:	20 f0       	brcs	.+8      	; 0x486 <__vector_1+0x42>
	{
		lap_count = 0;
     47e:	10 92 b1 01 	sts	0x01B1, r1	; 0x8001b1 <lap_count+0x1>
     482:	10 92 b0 01 	sts	0x01B0, r1	; 0x8001b0 <lap_count>
	}
}
     486:	9f 91       	pop	r25
     488:	8f 91       	pop	r24
     48a:	0f 90       	pop	r0
     48c:	0f be       	out	0x3f, r0	; 63
     48e:	0f 90       	pop	r0
     490:	1f 90       	pop	r1
     492:	18 95       	reti

00000494 <Init_ports>:
	}
}
//======================= I n i t _ p o r t s ( ) ===========================
// Note - the function takes no parameters and return nothing, hence void
void Init_ports( )
{	DDRD  &= ~(1<<PD6);	    // setup PORTD, bit6 and bit2 as input with ....
     494:	81 b3       	in	r24, 0x11	; 17
     496:	8f 7b       	andi	r24, 0xBF	; 191
     498:	81 bb       	out	0x11, r24	; 17
	PORTD |= (1<<PD6);   // AKTIVďż˝R PULL-UP
     49a:	82 b3       	in	r24, 0x12	; 18
     49c:	80 64       	ori	r24, 0x40	; 64
     49e:	82 bb       	out	0x12, r24	; 18
	//PORTD = PORTD | 0b01000100; // UPS! internal pull-up enabled .. not needed
	DDRC  = 0x00;	// setup PORTC as input with ....
     4a0:	14 ba       	out	0x14, r1	; 20
	PORTC = 0xFF;	// internal pull-up enabled
     4a2:	8f ef       	ldi	r24, 0xFF	; 255
     4a4:	85 bb       	out	0x15, r24	; 21
     4a6:	08 95       	ret

000004a8 <main>:
int main(void)
{
    /*  */
	int speedbar = 0;  // Til_hastighedsvisning pďż˝_lysdioder
	
	Init_ports();
     4a8:	0e 94 4a 02 	call	0x494	; 0x494 <Init_ports>
	Init_speedometer();                // Opsďż˝tning_af Timer1 capture_og Overflow
     4ac:	0e 94 79 03 	call	0x6f2	; 0x6f2 <Init_speedometer>
	//Det_er rart_at kunne_skrive tekst_og data pďż˝_PC skďż˝rmen_ - derfor_den_opsďż˝tning
	USART_Init(MYUBRR);
     4b0:	8c e0       	ldi	r24, 0x0C	; 12
     4b2:	90 e0       	ldi	r25, 0x00	; 0
     4b4:	0e 94 db 04 	call	0x9b6	; 0x9b6 <USART_Init>
	pwm_Init();
     4b8:	0e 94 69 03 	call	0x6d2	; 0x6d2 <pwm_Init>
	ADC_Init();
     4bc:	0e 94 c6 00 	call	0x18c	; 0x18c <ADC_Init>
	timer2_init();
     4c0:	0e 94 d5 04 	call	0x9aa	; 0x9aa <timer2_init>
	INT0_init();
     4c4:	0e 94 12 02 	call	0x424	; 0x424 <INT0_init>
	sei();
     4c8:	78 94       	sei
	uint8_t speed = 0;
	uint8_t lock = 0;
	uint8_t last_lap_count = 0;
	uint16_t filtered = 0;
	uint8_t debug_counter = 0;
	uint16_t accel_x = 0;
     4ca:	00 e0       	ldi	r16, 0x00	; 0
     4cc:	10 e0       	ldi	r17, 0x00	; 0

	uint8_t speed = 0;
	uint8_t lock = 0;
	uint8_t last_lap_count = 0;
	uint16_t filtered = 0;
	uint8_t debug_counter = 0;
     4ce:	d1 2c       	mov	r13, r1
	sei();

	uint8_t speed = 0;
	uint8_t lock = 0;
	uint8_t last_lap_count = 0;
	uint16_t filtered = 0;
     4d0:	c0 e0       	ldi	r28, 0x00	; 0
     4d2:	d0 e0       	ldi	r29, 0x00	; 0
	INT0_init();
	sei();

	uint8_t speed = 0;
	uint8_t lock = 0;
	uint8_t last_lap_count = 0;
     4d4:	f1 2c       	mov	r15, r1
	timer2_init();
	INT0_init();
	sei();

	uint8_t speed = 0;
	uint8_t lock = 0;
     4d6:	e1 2c       	mov	r14, r1
	ADC_Init();
	timer2_init();
	INT0_init();
	sei();

	uint8_t speed = 0;
     4d8:	c1 2c       	mov	r12, r1
	uint16_t accel_x = 0;


	while (1) 
	{		
		int value = USART_Receive();
     4da:	0e 94 f6 04 	call	0x9ec	; 0x9ec <USART_Receive>
//
		if (value >=0){ // Wait for the first speed 
     4de:	99 23       	and	r25, r25
     4e0:	0c f4       	brge	.+2      	; 0x4e4 <main+0x3c>
     4e2:	40 c0       	rjmp	.+128    	; 0x564 <main+0xbc>
			char c = (char)value;

			switch (lock)
     4e4:	ee 20       	and	r14, r14
     4e6:	21 f0       	breq	.+8      	; 0x4f0 <main+0x48>
     4e8:	31 e0       	ldi	r19, 0x01	; 1
     4ea:	e3 16       	cp	r14, r19
     4ec:	21 f0       	breq	.+8      	; 0x4f6 <main+0x4e>
     4ee:	3a c0       	rjmp	.+116    	; 0x564 <main+0xbc>
			{
			case 0:	// confirms it is an actual value and not noice
				if (c == 's'){
     4f0:	83 37       	cpi	r24, 0x73	; 115
     4f2:	c1 f5       	brne	.+112    	; 0x564 <main+0xbc>
     4f4:	34 c0       	rjmp	.+104    	; 0x55e <main+0xb6>
					lock = 1;
				}
				break;

			case 1: // reading value and convert ASCII to numerical value.
				if (c >= '0' && c <= '9') {
     4f6:	30 ed       	ldi	r19, 0xD0	; 208
     4f8:	38 0f       	add	r19, r24
     4fa:	3a 30       	cpi	r19, 0x0A	; 10
     4fc:	60 f4       	brcc	.+24     	; 0x516 <main+0x6e>
					speed = speed * 10 + (c - '0');
     4fe:	cc 0c       	add	r12, r12
     500:	9c 2d       	mov	r25, r12
     502:	99 0f       	add	r25, r25
     504:	99 0f       	add	r25, r25
     506:	c9 0e       	add	r12, r25
     508:	8c 0d       	add	r24, r12
     50a:	0f 2e       	mov	r0, r31
     50c:	f0 ed       	ldi	r31, 0xD0	; 208
     50e:	cf 2e       	mov	r12, r31
     510:	f0 2d       	mov	r31, r0
     512:	c8 0e       	add	r12, r24
     514:	27 c0       	rjmp	.+78     	; 0x564 <main+0xbc>
				}
				else if (c == '\r' || c == '\n'){
     516:	8d 30       	cpi	r24, 0x0D	; 13
     518:	11 f0       	breq	.+4      	; 0x51e <main+0x76>
     51a:	8a 30       	cpi	r24, 0x0A	; 10
     51c:	19 f5       	brne	.+70     	; 0x564 <main+0xbc>
					pwm_set_speed(speed);
     51e:	8c 2d       	mov	r24, r12
     520:	0e 94 77 03 	call	0x6ee	; 0x6ee <pwm_set_speed>
					snprintf(buffer, sizeof(buffer), "Motor started at speed %u\r\n", speed);
     524:	1f 92       	push	r1
     526:	cf 92       	push	r12
     528:	87 e7       	ldi	r24, 0x77	; 119
     52a:	90 e0       	ldi	r25, 0x00	; 0
     52c:	9f 93       	push	r25
     52e:	8f 93       	push	r24
     530:	81 e0       	ldi	r24, 0x01	; 1
     532:	8f 93       	push	r24
     534:	1f 92       	push	r1
     536:	8e ee       	ldi	r24, 0xEE	; 238
     538:	92 e0       	ldi	r25, 0x02	; 2
     53a:	9f 93       	push	r25
     53c:	8f 93       	push	r24
     53e:	0e 94 0c 07 	call	0xe18	; 0xe18 <snprintf>
					USART_Print(buffer);
     542:	8e ee       	ldi	r24, 0xEE	; 238
     544:	92 e0       	ldi	r25, 0x02	; 2
     546:	0e 94 e9 04 	call	0x9d2	; 0x9d2 <USART_Print>
     54a:	8d b7       	in	r24, 0x3d	; 61
     54c:	9e b7       	in	r25, 0x3e	; 62
     54e:	08 96       	adiw	r24, 0x08	; 8
     550:	0f b6       	in	r0, 0x3f	; 63
     552:	f8 94       	cli
     554:	9e bf       	out	0x3e, r25	; 62
     556:	0f be       	out	0x3f, r0	; 63
     558:	8d bf       	out	0x3d, r24	; 61
					lock = 0; // go pack to waiting for the next speed command
     55a:	e1 2c       	mov	r14, r1
     55c:	03 c0       	rjmp	.+6      	; 0x564 <main+0xbc>
			switch (lock)
			{
			case 0:	// confirms it is an actual value and not noice
				if (c == 's'){
					speed = 0;
					lock = 1;
     55e:	ee 24       	eor	r14, r14
     560:	e3 94       	inc	r14

			switch (lock)
			{
			case 0:	// confirms it is an actual value and not noice
				if (c == 's'){
					speed = 0;
     562:	c1 2c       	mov	r12, r1
					lock = 0; // go pack to waiting for the next speed command
				}
			}
		}

		if (tick5ms) 
     564:	80 91 cd 01 	lds	r24, 0x01CD	; 0x8001cd <tick5ms>
     568:	88 23       	and	r24, r24
     56a:	09 f4       	brne	.+2      	; 0x56e <main+0xc6>
     56c:	5d c0       	rjmp	.+186    	; 0x628 <main+0x180>
		{
            tick5ms = 0;
     56e:	10 92 cd 01 	sts	0x01CD, r1	; 0x8001cd <tick5ms>
			uint16_t accel = ADC_Read(0);
     572:	80 e0       	ldi	r24, 0x00	; 0
     574:	90 e0       	ldi	r25, 0x00	; 0
     576:	0e 94 ca 00 	call	0x194	; 0x194 <ADC_Read>
     57a:	5c 01       	movw	r10, r24

			filtered = (filtered * 3 + accel) / 4;
     57c:	ce 01       	movw	r24, r28
     57e:	88 0f       	add	r24, r24
     580:	99 1f       	adc	r25, r25
     582:	c8 0f       	add	r28, r24
     584:	d9 1f       	adc	r29, r25
     586:	ca 0d       	add	r28, r10
     588:	db 1d       	adc	r29, r11
     58a:	d6 95       	lsr	r29
     58c:	c7 95       	ror	r28
     58e:	d6 95       	lsr	r29
     590:	c7 95       	ror	r28
			bane_opmaaling(filtered);
     592:	ce 01       	movw	r24, r28
     594:	0e 94 d7 00 	call	0x1ae	; 0x1ae <bane_opmaaling>
			
			if (++debug_counter >= 20) 
     598:	d3 94       	inc	r13
     59a:	93 e1       	ldi	r25, 0x13	; 19
     59c:	9d 15       	cp	r25, r13
     59e:	08 f0       	brcs	.+2      	; 0x5a2 <main+0xfa>
     5a0:	43 c0       	rjmp	.+134    	; 0x628 <main+0x180>
			{
				debug_counter = 0;
				if (accel_x < accel)
     5a2:	0a 15       	cp	r16, r10
     5a4:	1b 05       	cpc	r17, r11
     5a6:	08 f4       	brcc	.+2      	; 0x5aa <main+0x102>
				{
					accel_x = accel;
     5a8:	85 01       	movw	r16, r10
				}
				
				snprintf(buffer, sizeof(buffer), "\rX=%u Speed=%u ODO=%3d Hast=%8s Acc=%8s TopX=%u       ", filtered, speed, Bil.Odo, floatstr(Bil.Hastighed), floatstr(Bil.Acceleration), accel_x);
     5aa:	0f 2e       	mov	r0, r31
     5ac:	f3 ef       	ldi	r31, 0xF3	; 243
     5ae:	af 2e       	mov	r10, r31
     5b0:	f1 e0       	ldi	r31, 0x01	; 1
     5b2:	bf 2e       	mov	r11, r31
     5b4:	f0 2d       	mov	r31, r0
     5b6:	f5 01       	movw	r30, r10
     5b8:	64 85       	ldd	r22, Z+12	; 0x0c
     5ba:	75 85       	ldd	r23, Z+13	; 0x0d
     5bc:	86 85       	ldd	r24, Z+14	; 0x0e
     5be:	97 85       	ldd	r25, Z+15	; 0x0f
     5c0:	0e 94 8c 04 	call	0x918	; 0x918 <floatstr>
     5c4:	d8 2e       	mov	r13, r24
     5c6:	99 2e       	mov	r9, r25
     5c8:	f5 01       	movw	r30, r10
     5ca:	60 85       	ldd	r22, Z+8	; 0x08
     5cc:	71 85       	ldd	r23, Z+9	; 0x09
     5ce:	82 85       	ldd	r24, Z+10	; 0x0a
     5d0:	93 85       	ldd	r25, Z+11	; 0x0b
     5d2:	0e 94 8c 04 	call	0x918	; 0x918 <floatstr>
     5d6:	1f 93       	push	r17
     5d8:	0f 93       	push	r16
     5da:	9f 92       	push	r9
     5dc:	df 92       	push	r13
     5de:	9f 93       	push	r25
     5e0:	8f 93       	push	r24
     5e2:	f5 01       	movw	r30, r10
     5e4:	81 8d       	ldd	r24, Z+25	; 0x19
     5e6:	8f 93       	push	r24
     5e8:	80 8d       	ldd	r24, Z+24	; 0x18
     5ea:	8f 93       	push	r24
     5ec:	1f 92       	push	r1
     5ee:	cf 92       	push	r12
     5f0:	df 93       	push	r29
     5f2:	cf 93       	push	r28
     5f4:	83 e9       	ldi	r24, 0x93	; 147
     5f6:	90 e0       	ldi	r25, 0x00	; 0
     5f8:	9f 93       	push	r25
     5fa:	8f 93       	push	r24
     5fc:	81 e0       	ldi	r24, 0x01	; 1
     5fe:	8f 93       	push	r24
     600:	1f 92       	push	r1
     602:	8e ee       	ldi	r24, 0xEE	; 238
     604:	92 e0       	ldi	r25, 0x02	; 2
     606:	9f 93       	push	r25
     608:	8f 93       	push	r24
     60a:	0e 94 0c 07 	call	0xe18	; 0xe18 <snprintf>
				USART_Print(buffer);
     60e:	8e ee       	ldi	r24, 0xEE	; 238
     610:	92 e0       	ldi	r25, 0x02	; 2
     612:	0e 94 e9 04 	call	0x9d2	; 0x9d2 <USART_Print>
     616:	8d b7       	in	r24, 0x3d	; 61
     618:	9e b7       	in	r25, 0x3e	; 62
     61a:	42 96       	adiw	r24, 0x12	; 18
     61c:	0f b6       	in	r0, 0x3f	; 63
     61e:	f8 94       	cli
     620:	9e bf       	out	0x3e, r25	; 62
     622:	0f be       	out	0x3f, r0	; 63
     624:	8d bf       	out	0x3d, r24	; 61
			filtered = (filtered * 3 + accel) / 4;
			bane_opmaaling(filtered);
			
			if (++debug_counter >= 20) 
			{
				debug_counter = 0;
     626:	d1 2c       	mov	r13, r1
				snprintf(buffer, sizeof(buffer), "\rX=%u Speed=%u ODO=%3d Hast=%8s Acc=%8s TopX=%u       ", filtered, speed, Bil.Odo, floatstr(Bil.Hastighed), floatstr(Bil.Acceleration), accel_x);
				USART_Print(buffer);
			}
        }

		if(Ur.LapFlag)  // Nďż˝r_LapFlag=1 betyder_det at der_har vďż˝ret_en ICP_puls
     628:	80 91 f2 01 	lds	r24, 0x01F2	; 0x8001f2 <Ur+0x24>
     62c:	88 23       	and	r24, r24
     62e:	21 f0       	breq	.+8      	; 0x638 <main+0x190>
		{   
			Beregn_hastighed_og_acc( ANTAL_FELTER);      // ANTAL_FELTER = 3 => 1 Omdr.
     630:	83 e0       	ldi	r24, 0x03	; 3
     632:	90 e0       	ldi	r25, 0x00	; 0
     634:	0e 94 f9 03 	call	0x7f2	; 0x7f2 <Beregn_hastighed_og_acc>
			// Bemďż˝rk_at de_fďż˝lgende 2 statements skriver_tekst pďż˝_PC_skďż˝rmen 
			// hvis_der er_installeret den_rette USB/UART driver og_et_terminalprogram
			//  %3d => udskrift af integer og  %8s udskrift af string (tal er feltbredde)
		}

		if (lap_count != last_lap_count)
     638:	2f 2d       	mov	r18, r15
     63a:	30 e0       	ldi	r19, 0x00	; 0
     63c:	40 91 b0 01 	lds	r20, 0x01B0	; 0x8001b0 <lap_count>
     640:	50 91 b1 01 	lds	r21, 0x01B1	; 0x8001b1 <lap_count+0x1>
     644:	24 17       	cp	r18, r20
     646:	35 07       	cpc	r19, r21
     648:	c9 f1       	breq	.+114    	; 0x6bc <main+0x214>
		{
			last_lap_count = lap_count;
     64a:	80 91 b0 01 	lds	r24, 0x01B0	; 0x8001b0 <lap_count>
     64e:	90 91 b1 01 	lds	r25, 0x01B1	; 0x8001b1 <lap_count+0x1>
     652:	f8 2e       	mov	r15, r24
			snprintf(buffer, sizeof(buffer), "\r                                                                                           lap = %u", lap_count);
     654:	80 91 b0 01 	lds	r24, 0x01B0	; 0x8001b0 <lap_count>
     658:	90 91 b1 01 	lds	r25, 0x01B1	; 0x8001b1 <lap_count+0x1>
     65c:	9f 93       	push	r25
     65e:	8f 93       	push	r24
     660:	8a ec       	ldi	r24, 0xCA	; 202
     662:	90 e0       	ldi	r25, 0x00	; 0
     664:	9f 93       	push	r25
     666:	8f 93       	push	r24
     668:	81 e0       	ldi	r24, 0x01	; 1
     66a:	8f 93       	push	r24
     66c:	1f 92       	push	r1
     66e:	8e ee       	ldi	r24, 0xEE	; 238
     670:	92 e0       	ldi	r25, 0x02	; 2
     672:	9f 93       	push	r25
     674:	8f 93       	push	r24
     676:	0e 94 0c 07 	call	0xe18	; 0xe18 <snprintf>
			USART_Print(buffer);
     67a:	8e ee       	ldi	r24, 0xEE	; 238
     67c:	92 e0       	ldi	r25, 0x02	; 2
     67e:	0e 94 e9 04 	call	0x9d2	; 0x9d2 <USART_Print>
			
			if (lap_count == 1)
     682:	80 91 b0 01 	lds	r24, 0x01B0	; 0x8001b0 <lap_count>
     686:	90 91 b1 01 	lds	r25, 0x01B1	; 0x8001b1 <lap_count+0x1>
     68a:	ed b7       	in	r30, 0x3d	; 61
     68c:	fe b7       	in	r31, 0x3e	; 62
     68e:	38 96       	adiw	r30, 0x08	; 8
     690:	0f b6       	in	r0, 0x3f	; 63
     692:	f8 94       	cli
     694:	fe bf       	out	0x3e, r31	; 62
     696:	0f be       	out	0x3f, r0	; 63
     698:	ed bf       	out	0x3d, r30	; 61
     69a:	01 97       	sbiw	r24, 0x01	; 1
     69c:	79 f4       	brne	.+30     	; 0x6bc <main+0x214>
			{
				bane_build_segments(); // fĂ¸rste omgang er fĂ¦rdig her og bygger bane
     69e:	0e 94 32 01 	call	0x264	; 0x264 <bane_build_segments>
			
			snprintf(buffer, sizeof(buffer), "\r                                                                                                       Segmenter bygget!");
     6a2:	8a e7       	ldi	r24, 0x7A	; 122
     6a4:	ef e2       	ldi	r30, 0x2F	; 47
     6a6:	f1 e0       	ldi	r31, 0x01	; 1
     6a8:	ae ee       	ldi	r26, 0xEE	; 238
     6aa:	b2 e0       	ldi	r27, 0x02	; 2
     6ac:	01 90       	ld	r0, Z+
     6ae:	0d 92       	st	X+, r0
     6b0:	8a 95       	dec	r24
     6b2:	e1 f7       	brne	.-8      	; 0x6ac <main+0x204>
			USART_Print(buffer);
     6b4:	8e ee       	ldi	r24, 0xEE	; 238
     6b6:	92 e0       	ldi	r25, 0x02	; 2
     6b8:	0e 94 e9 04 	call	0x9d2	; 0x9d2 <USART_Print>
			}
			
		}
		if (lap_count > 1)
     6bc:	20 91 b0 01 	lds	r18, 0x01B0	; 0x8001b0 <lap_count>
     6c0:	30 91 b1 01 	lds	r19, 0x01B1	; 0x8001b1 <lap_count+0x1>
     6c4:	22 30       	cpi	r18, 0x02	; 2
     6c6:	31 05       	cpc	r19, r1
     6c8:	08 f4       	brcc	.+2      	; 0x6cc <main+0x224>
     6ca:	07 cf       	rjmp	.-498    	; 0x4da <main+0x32>
		{
				bane_run();
     6cc:	0e 94 c9 01 	call	0x392	; 0x392 <bane_run>
     6d0:	04 cf       	rjmp	.-504    	; 0x4da <main+0x32>

000006d2 <pwm_Init>:
#include "pwm.h"

void pwm_Init(void)
{
	// Set PD7 (OC2) as output
	DDRD |= (1<< PD7);
     6d2:	81 b3       	in	r24, 0x11	; 17
     6d4:	80 68       	ori	r24, 0x80	; 128
     6d6:	81 bb       	out	0x11, r24	; 17
	
	// Set fast PWM mode (Mode 3)
	TCCR2 |= (1<< WGM21) | (1<< WGM20);
     6d8:	85 b5       	in	r24, 0x25	; 37
     6da:	88 64       	ori	r24, 0x48	; 72
     6dc:	85 bd       	out	0x25, r24	; 37
	
	// non-inverting
	TCCR2 |= (1<< COM21);
     6de:	85 b5       	in	r24, 0x25	; 37
     6e0:	80 62       	ori	r24, 0x20	; 32
     6e2:	85 bd       	out	0x25, r24	; 37
	
	// Prescaler = 64 -> PWM frequency = 976 (CS21 for a prescaler of 8)
	TCCR2 |= (1<< CS22);
     6e4:	85 b5       	in	r24, 0x25	; 37
     6e6:	84 60       	ori	r24, 0x04	; 4
     6e8:	85 bd       	out	0x25, r24	; 37
	
	// init motor
	OCR2 = 0;	
     6ea:	13 bc       	out	0x23, r1	; 35
     6ec:	08 95       	ret

000006ee <pwm_set_speed>:
}

void pwm_set_speed(uint8_t duty)
{
	// duty in [0; 255]
	OCR2 = duty;
     6ee:	83 bd       	out	0x23, r24	; 35
     6f0:	08 95       	ret

000006f2 <Init_speedometer>:
// gang at Timer1 nĺr_max vćrdien_0xFFFF.
// Ved_hjćlp af_dette interrupt kan_en exstra_16bits tćller_"MSW" tćlles_op.
// Man kan_med andre_ord_danne en 32 bits tidsmĺling_= MSW<<16 + ICR1
//-----------------------------------------------------------------------------;
void Init_speedometer( )
{   TIFR  |= 1<<ICF1;	 // Clear: Input Capture Flag timer 1 (bit 5)
     6f2:	88 b7       	in	r24, 0x38	; 56
     6f4:	80 62       	ori	r24, 0x20	; 32
     6f6:	88 bf       	out	0x38, r24	; 56
	TIMSK &= ~0x18;      // Set bit 4,3 to zero
     6f8:	89 b7       	in	r24, 0x39	; 57
     6fa:	87 7e       	andi	r24, 0xE7	; 231
     6fc:	89 bf       	out	0x39, r24	; 57
	TIMSK |= 1<<TOIE1;   // Timer1 Overflow interrupt Enable (bit 2)
     6fe:	89 b7       	in	r24, 0x39	; 57
     700:	84 60       	ori	r24, 0x04	; 4
     702:	89 bf       	out	0x39, r24	; 57
	TIMSK |= 1<<TICIE1;	 // Timer1 Input Capture Interrupt Enable (bit 5)
     704:	89 b7       	in	r24, 0x39	; 57
     706:	80 62       	ori	r24, 0x20	; 32
     708:	89 bf       	out	0x39, r24	; 57
	TCCR1A = 0x00;
     70a:	1f bc       	out	0x2f, r1	; 47
	TCCR1B = 0b10000011; // bit7:6 = noisecancel_edgecap
     70c:	83 e8       	ldi	r24, 0x83	; 131
     70e:	8e bd       	out	0x2e, r24	; 46
	//          001 => Clk/1             =>16MHz     => T= 0,0625us
	//          010 => Clk/8      16/8   => 2MHz     => T= 0,5us
	//          011 => Clk/64     16/64  => 0,25MHz  => T= 4us
	//          100 => Clk/256    16/256 => 62,5kHz  => T=16us
	//          101 => Clk/1024   16/1024=> 15,6kHz  => T=64us
	Ur.MSW = 0;        // Init_ Most Significant Word
     710:	ee ec       	ldi	r30, 0xCE	; 206
     712:	f1 e0       	ldi	r31, 0x01	; 1
     714:	11 82       	std	Z+1, r1	; 0x01
     716:	10 82       	st	Z, r1
	Ur.LapFlag=0;      // Nulstil_flag => ingen mellemtider klar
     718:	14 a2       	std	Z+36, r1	; 0x24
	Bil.Odo=0;         // Nulstil_afstandmĺler
     71a:	10 92 0c 02 	sts	0x020C, r1	; 0x80020c <Bil+0x19>
     71e:	10 92 0b 02 	sts	0x020B, r1	; 0x80020b <Bil+0x18>
     722:	08 95       	ret

00000724 <__vector_6>:
}

//=T i m e r 1    C a p t u r e   i n t e r r u p t ================================
// Timer 1 Capture interrupt service routine
ISR(TIMER1_CAPT_vect)
{	Ur.Linx          = (Ur.Linx+1)&(MAXur-1);      // Increment index 0,1,2,3 ... MAXur-1
     724:	1f 92       	push	r1
     726:	0f 92       	push	r0
     728:	0f b6       	in	r0, 0x3f	; 63
     72a:	0f 92       	push	r0
     72c:	11 24       	eor	r1, r1
     72e:	2f 93       	push	r18
     730:	3f 93       	push	r19
     732:	4f 93       	push	r20
     734:	5f 93       	push	r21
     736:	6f 93       	push	r22
     738:	7f 93       	push	r23
     73a:	8f 93       	push	r24
     73c:	9f 93       	push	r25
     73e:	af 93       	push	r26
     740:	bf 93       	push	r27
     742:	ef 93       	push	r30
     744:	ff 93       	push	r31
     746:	ee ec       	ldi	r30, 0xCE	; 206
     748:	f1 e0       	ldi	r31, 0x01	; 1
     74a:	82 a1       	ldd	r24, Z+34	; 0x22
     74c:	93 a1       	ldd	r25, Z+35	; 0x23
     74e:	01 96       	adiw	r24, 0x01	; 1
     750:	87 70       	andi	r24, 0x07	; 7
     752:	99 27       	eor	r25, r25
     754:	93 a3       	std	Z+35, r25	; 0x23
     756:	82 a3       	std	Z+34, r24	; 0x22
	Ur.Laps[Ur.Linx] = ((uint32_t) Ur.MSW<<16) + ICR1;  // Store a 32bit number
     758:	40 81       	ld	r20, Z
     75a:	51 81       	ldd	r21, Z+1	; 0x01
     75c:	60 e0       	ldi	r22, 0x00	; 0
     75e:	70 e0       	ldi	r23, 0x00	; 0
     760:	ba 01       	movw	r22, r20
     762:	55 27       	eor	r21, r21
     764:	44 27       	eor	r20, r20
     766:	26 b5       	in	r18, 0x26	; 38
     768:	37 b5       	in	r19, 0x27	; 39
     76a:	42 0f       	add	r20, r18
     76c:	53 1f       	adc	r21, r19
     76e:	61 1d       	adc	r22, r1
     770:	71 1d       	adc	r23, r1
     772:	88 0f       	add	r24, r24
     774:	99 1f       	adc	r25, r25
     776:	88 0f       	add	r24, r24
     778:	99 1f       	adc	r25, r25
     77a:	dc 01       	movw	r26, r24
     77c:	a2 53       	subi	r26, 0x32	; 50
     77e:	be 4f       	sbci	r27, 0xFE	; 254
     780:	12 96       	adiw	r26, 0x02	; 2
     782:	4d 93       	st	X+, r20
     784:	5d 93       	st	X+, r21
     786:	6d 93       	st	X+, r22
     788:	7c 93       	st	X, r23
     78a:	15 97       	sbiw	r26, 0x05	; 5
	Ur.LapFlag = 1;  // Ny_mellemtid er_klar
     78c:	81 e0       	ldi	r24, 0x01	; 1
     78e:	84 a3       	std	Z+36, r24	; 0x24
	Bil.Odo++;       // Forřg_afstandsmĺler
     790:	e3 ef       	ldi	r30, 0xF3	; 243
     792:	f1 e0       	ldi	r31, 0x01	; 1
     794:	80 8d       	ldd	r24, Z+24	; 0x18
     796:	91 8d       	ldd	r25, Z+25	; 0x19
     798:	01 96       	adiw	r24, 0x01	; 1
     79a:	91 8f       	std	Z+25, r25	; 0x19
     79c:	80 8f       	std	Z+24, r24	; 0x18
}
     79e:	ff 91       	pop	r31
     7a0:	ef 91       	pop	r30
     7a2:	bf 91       	pop	r27
     7a4:	af 91       	pop	r26
     7a6:	9f 91       	pop	r25
     7a8:	8f 91       	pop	r24
     7aa:	7f 91       	pop	r23
     7ac:	6f 91       	pop	r22
     7ae:	5f 91       	pop	r21
     7b0:	4f 91       	pop	r20
     7b2:	3f 91       	pop	r19
     7b4:	2f 91       	pop	r18
     7b6:	0f 90       	pop	r0
     7b8:	0f be       	out	0x3f, r0	; 63
     7ba:	0f 90       	pop	r0
     7bc:	1f 90       	pop	r1
     7be:	18 95       	reti

000007c0 <__vector_9>:
//=T i m e r 1    O v e r f l o w    i n t e r r u p t ================================
// Each time the timer reach 0xFFFF must the MSW be incremented
ISR(TIMER1_OVF_vect)
{	Ur.MSW++;
     7c0:	1f 92       	push	r1
     7c2:	0f 92       	push	r0
     7c4:	0f b6       	in	r0, 0x3f	; 63
     7c6:	0f 92       	push	r0
     7c8:	11 24       	eor	r1, r1
     7ca:	8f 93       	push	r24
     7cc:	9f 93       	push	r25
     7ce:	ef 93       	push	r30
     7d0:	ff 93       	push	r31
     7d2:	ee ec       	ldi	r30, 0xCE	; 206
     7d4:	f1 e0       	ldi	r31, 0x01	; 1
     7d6:	80 81       	ld	r24, Z
     7d8:	91 81       	ldd	r25, Z+1	; 0x01
     7da:	01 96       	adiw	r24, 0x01	; 1
     7dc:	91 83       	std	Z+1, r25	; 0x01
     7de:	80 83       	st	Z, r24
}
     7e0:	ff 91       	pop	r31
     7e2:	ef 91       	pop	r30
     7e4:	9f 91       	pop	r25
     7e6:	8f 91       	pop	r24
     7e8:	0f 90       	pop	r0
     7ea:	0f be       	out	0x3f, r0	; 63
     7ec:	0f 90       	pop	r0
     7ee:	1f 90       	pop	r1
     7f0:	18 95       	reti

000007f2 <Beregn_hastighed_og_acc>:

//////////////////// B e r e g n _ h a s t i g h e d _ o g _ a c c /////////////////////
// Tn er_antallet af_samples man skal_bruge_til_beregningerne = pulser per_omdrejning
void Beregn_hastighed_og_acc( int Tn)
{	int xLinx;        // Lagerplads_til en kopi_af Ur.Linx -hvorfor_er_det smart/_vigtigt?
     7f2:	4f 92       	push	r4
     7f4:	5f 92       	push	r5
     7f6:	6f 92       	push	r6
     7f8:	7f 92       	push	r7
     7fa:	8f 92       	push	r8
     7fc:	9f 92       	push	r9
     7fe:	af 92       	push	r10
     800:	bf 92       	push	r11
     802:	cf 92       	push	r12
     804:	df 92       	push	r13
     806:	ef 92       	push	r14
     808:	ff 92       	push	r15
     80a:	cf 93       	push	r28
     80c:	df 93       	push	r29
     80e:	bc 01       	movw	r22, r24
	
	if (!Tn) Tn=1;    // Tn skal_altid vćre_mindst 1
     810:	89 2b       	or	r24, r25
     812:	11 f4       	brne	.+4      	; 0x818 <__DATA_REGION_LENGTH__+0x18>
     814:	61 e0       	ldi	r22, 0x01	; 1
     816:	70 e0       	ldi	r23, 0x00	; 0
	Ur.LapFlag = 0;   // Kvitter_for modtagelse_af_mellemtid
     818:	ee ec       	ldi	r30, 0xCE	; 206
     81a:	f1 e0       	ldi	r31, 0x01	; 1
     81c:	14 a2       	std	Z+36, r1	; 0x24
	// Beregn_tiden for en hel_omdrejning af_hjulet
	// Bil.Periodetid = Ur.Laps[Ur.Linx]- Ur.Laps[(Ur.Linx-Tn)&(MAXur-1)]; //Hvorfor ikke?
	xLinx = Ur.Linx;   // Husk en kopi_af Ur.Linx
     81e:	22 a1       	ldd	r18, Z+34	; 0x22
     820:	33 a1       	ldd	r19, Z+35	; 0x23
	Bil.Periodetid   = Ur.Laps[xLinx]- Ur.Laps[(xLinx-Tn)&(MAXur-1)];
     822:	f9 01       	movw	r30, r18
     824:	ee 0f       	add	r30, r30
     826:	ff 1f       	adc	r31, r31
     828:	ee 0f       	add	r30, r30
     82a:	ff 1f       	adc	r31, r31
     82c:	e2 53       	subi	r30, 0x32	; 50
     82e:	fe 4f       	sbci	r31, 0xFE	; 254
     830:	c2 80       	ldd	r12, Z+2	; 0x02
     832:	d3 80       	ldd	r13, Z+3	; 0x03
     834:	e4 80       	ldd	r14, Z+4	; 0x04
     836:	f5 80       	ldd	r15, Z+5	; 0x05
     838:	f9 01       	movw	r30, r18
     83a:	e6 1b       	sub	r30, r22
     83c:	f7 0b       	sbc	r31, r23
     83e:	e7 70       	andi	r30, 0x07	; 7
     840:	ff 27       	eor	r31, r31
     842:	ee 0f       	add	r30, r30
     844:	ff 1f       	adc	r31, r31
     846:	ee 0f       	add	r30, r30
     848:	ff 1f       	adc	r31, r31
     84a:	e2 53       	subi	r30, 0x32	; 50
     84c:	fe 4f       	sbci	r31, 0xFE	; 254
     84e:	82 81       	ldd	r24, Z+2	; 0x02
     850:	93 81       	ldd	r25, Z+3	; 0x03
     852:	a4 81       	ldd	r26, Z+4	; 0x04
     854:	b5 81       	ldd	r27, Z+5	; 0x05
     856:	c8 1a       	sub	r12, r24
     858:	d9 0a       	sbc	r13, r25
     85a:	ea 0a       	sbc	r14, r26
     85c:	fb 0a       	sbc	r15, r27
     85e:	c3 ef       	ldi	r28, 0xF3	; 243
     860:	d1 e0       	ldi	r29, 0x01	; 1
     862:	c8 82       	st	Y, r12
     864:	d9 82       	std	Y+1, r13	; 0x01
     866:	ea 82       	std	Y+2, r14	; 0x02
     868:	fb 82       	std	Y+3, r15	; 0x03
	//--------------------------------------------------------------------------------
	Bil.OldHastighed = Bil.Hastighed;
     86a:	88 84       	ldd	r8, Y+8	; 0x08
     86c:	99 84       	ldd	r9, Y+9	; 0x09
     86e:	aa 84       	ldd	r10, Y+10	; 0x0a
     870:	bb 84       	ldd	r11, Y+11	; 0x0b
     872:	8c 82       	std	Y+4, r8	; 0x04
     874:	9d 82       	std	Y+5, r9	; 0x05
     876:	ae 82       	std	Y+6, r10	; 0x06
     878:	bf 82       	std	Y+7, r11	; 0x07
	Bil.Hastighed    = PULS_AFSTAND * Tn / Bil.Periodetid;
     87a:	07 2e       	mov	r0, r23
     87c:	00 0c       	add	r0, r0
     87e:	88 0b       	sbc	r24, r24
     880:	99 0b       	sbc	r25, r25
     882:	0e 94 df 05 	call	0xbbe	; 0xbbe <__floatsisf>
     886:	20 e0       	ldi	r18, 0x00	; 0
     888:	34 ec       	ldi	r19, 0xC4	; 196
     88a:	46 e8       	ldi	r20, 0x86	; 134
     88c:	57 e4       	ldi	r21, 0x47	; 71
     88e:	0e 94 6b 06 	call	0xcd6	; 0xcd6 <__mulsf3>
     892:	2b 01       	movw	r4, r22
     894:	3c 01       	movw	r6, r24
     896:	c7 01       	movw	r24, r14
     898:	b6 01       	movw	r22, r12
     89a:	0e 94 df 05 	call	0xbbe	; 0xbbe <__floatsisf>
     89e:	6b 01       	movw	r12, r22
     8a0:	7c 01       	movw	r14, r24
     8a2:	9b 01       	movw	r18, r22
     8a4:	ac 01       	movw	r20, r24
     8a6:	c3 01       	movw	r24, r6
     8a8:	b2 01       	movw	r22, r4
     8aa:	0e 94 6b 05 	call	0xad6	; 0xad6 <__divsf3>
     8ae:	2b 01       	movw	r4, r22
     8b0:	3c 01       	movw	r6, r24
     8b2:	68 87       	std	Y+8, r22	; 0x08
     8b4:	79 87       	std	Y+9, r23	; 0x09
     8b6:	8a 87       	std	Y+10, r24	; 0x0a
     8b8:	9b 87       	std	Y+11, r25	; 0x0b
	Bil.Acceleration = 100000.0 *(Bil.Hastighed - Bil.OldHastighed)/ Bil.Periodetid;
     8ba:	a5 01       	movw	r20, r10
     8bc:	94 01       	movw	r18, r8
     8be:	0e 94 fe 04 	call	0x9fc	; 0x9fc <__subsf3>
     8c2:	20 e0       	ldi	r18, 0x00	; 0
     8c4:	30 e5       	ldi	r19, 0x50	; 80
     8c6:	43 ec       	ldi	r20, 0xC3	; 195
     8c8:	57 e4       	ldi	r21, 0x47	; 71
     8ca:	0e 94 6b 06 	call	0xcd6	; 0xcd6 <__mulsf3>
     8ce:	a7 01       	movw	r20, r14
     8d0:	96 01       	movw	r18, r12
     8d2:	0e 94 6b 05 	call	0xad6	; 0xad6 <__divsf3>
     8d6:	6c 87       	std	Y+12, r22	; 0x0c
     8d8:	7d 87       	std	Y+13, r23	; 0x0d
     8da:	8e 87       	std	Y+14, r24	; 0x0e
     8dc:	9f 87       	std	Y+15, r25	; 0x0f
	                                 // 100000.0 er_tilfćldigt_valgt	 
	Bil.Hast = Bil.Hastighed;        // Lagre_som int
     8de:	48 8a       	std	Y+16, r4	; 0x10
     8e0:	59 8a       	std	Y+17, r5	; 0x11
     8e2:	6a 8a       	std	Y+18, r6	; 0x12
     8e4:	7b 8a       	std	Y+19, r7	; 0x13
	Bil.Acc = 10*Bil.Acceleration;   // Lagre_acc (10 er_tilfćldigt_valgt)
     8e6:	20 e0       	ldi	r18, 0x00	; 0
     8e8:	30 e0       	ldi	r19, 0x00	; 0
     8ea:	40 e2       	ldi	r20, 0x20	; 32
     8ec:	51 e4       	ldi	r21, 0x41	; 65
     8ee:	0e 94 6b 06 	call	0xcd6	; 0xcd6 <__mulsf3>
     8f2:	6c 8b       	std	Y+20, r22	; 0x14
     8f4:	7d 8b       	std	Y+21, r23	; 0x15
     8f6:	8e 8b       	std	Y+22, r24	; 0x16
     8f8:	9f 8b       	std	Y+23, r25	; 0x17
}
     8fa:	df 91       	pop	r29
     8fc:	cf 91       	pop	r28
     8fe:	ff 90       	pop	r15
     900:	ef 90       	pop	r14
     902:	df 90       	pop	r13
     904:	cf 90       	pop	r12
     906:	bf 90       	pop	r11
     908:	af 90       	pop	r10
     90a:	9f 90       	pop	r9
     90c:	8f 90       	pop	r8
     90e:	7f 90       	pop	r7
     910:	6f 90       	pop	r6
     912:	5f 90       	pop	r5
     914:	4f 90       	pop	r4
     916:	08 95       	ret

00000918 <floatstr>:


char* floatstr(float tal) {
     918:	0f 93       	push	r16
     91a:	1f 93       	push	r17
	static int x = 0;
	static char str[2][12];  // Static - important in order to keep the string // kommer fra JJ's kode
	x=(x+1)&1;               // change the string
     91c:	20 91 ca 01 	lds	r18, 0x01CA	; 0x8001ca <x.1639>
     920:	30 91 cb 01 	lds	r19, 0x01CB	; 0x8001cb <x.1639+0x1>
     924:	2f 5f       	subi	r18, 0xFF	; 255
     926:	3f 4f       	sbci	r19, 0xFF	; 255
     928:	21 70       	andi	r18, 0x01	; 1
     92a:	33 27       	eor	r19, r19
     92c:	30 93 cb 01 	sts	0x01CB, r19	; 0x8001cb <x.1639+0x1>
     930:	20 93 ca 01 	sts	0x01CA, r18	; 0x8001ca <x.1639>
    dtostrf(tal, 6, 2, str[x]);
     934:	89 01       	movw	r16, r18
     936:	00 0f       	add	r16, r16
     938:	11 1f       	adc	r17, r17
     93a:	02 0f       	add	r16, r18
     93c:	13 1f       	adc	r17, r19
     93e:	00 0f       	add	r16, r16
     940:	11 1f       	adc	r17, r17
     942:	00 0f       	add	r16, r16
     944:	11 1f       	adc	r17, r17
     946:	0e 54       	subi	r16, 0x4E	; 78
     948:	1e 4f       	sbci	r17, 0xFE	; 254
     94a:	22 e0       	ldi	r18, 0x02	; 2
     94c:	30 e0       	ldi	r19, 0x00	; 0
     94e:	46 e0       	ldi	r20, 0x06	; 6
     950:	50 e0       	ldi	r21, 0x00	; 0
     952:	0e 94 ec 06 	call	0xdd8	; 0xdd8 <dtostrf>
    return str[x];
     956:	80 91 ca 01 	lds	r24, 0x01CA	; 0x8001ca <x.1639>
     95a:	90 91 cb 01 	lds	r25, 0x01CB	; 0x8001cb <x.1639+0x1>
     95e:	9c 01       	movw	r18, r24
     960:	22 0f       	add	r18, r18
     962:	33 1f       	adc	r19, r19
     964:	82 0f       	add	r24, r18
     966:	93 1f       	adc	r25, r19
     968:	88 0f       	add	r24, r24
     96a:	99 1f       	adc	r25, r25
     96c:	88 0f       	add	r24, r24
     96e:	99 1f       	adc	r25, r25
}
     970:	8e 54       	subi	r24, 0x4E	; 78
     972:	9e 4f       	sbci	r25, 0xFE	; 254
     974:	1f 91       	pop	r17
     976:	0f 91       	pop	r16
     978:	08 95       	ret

0000097a <__vector_11>:
#include "timer.h"

volatile uint8_t tick5ms = 0;
static uint8_t overflow_count = 0;

ISR(TIMER0_OVF_vect) {
     97a:	1f 92       	push	r1
     97c:	0f 92       	push	r0
     97e:	0f b6       	in	r0, 0x3f	; 63
     980:	0f 92       	push	r0
     982:	11 24       	eor	r1, r1
     984:	8f 93       	push	r24
    if (++overflow_count >= 5) {
     986:	80 91 cc 01 	lds	r24, 0x01CC	; 0x8001cc <overflow_count>
     98a:	8f 5f       	subi	r24, 0xFF	; 255
     98c:	80 93 cc 01 	sts	0x01CC, r24	; 0x8001cc <overflow_count>
     990:	85 30       	cpi	r24, 0x05	; 5
     992:	28 f0       	brcs	.+10     	; 0x99e <__vector_11+0x24>
        overflow_count = 0;
     994:	10 92 cc 01 	sts	0x01CC, r1	; 0x8001cc <overflow_count>
        tick5ms = 1;
     998:	81 e0       	ldi	r24, 0x01	; 1
     99a:	80 93 cd 01 	sts	0x01CD, r24	; 0x8001cd <tick5ms>
    }
}
     99e:	8f 91       	pop	r24
     9a0:	0f 90       	pop	r0
     9a2:	0f be       	out	0x3f, r0	; 63
     9a4:	0f 90       	pop	r0
     9a6:	1f 90       	pop	r1
     9a8:	18 95       	reti

000009aa <timer2_init>:

void timer2_init(void) {
    TCCR0 = (1 << CS01) |  (1 << CS00); // prescaler 64
     9aa:	83 e0       	ldi	r24, 0x03	; 3
     9ac:	83 bf       	out	0x33, r24	; 51
    TIMSK |= (1 << TOIE0); // enable overflow interrupt
     9ae:	89 b7       	in	r24, 0x39	; 57
     9b0:	81 60       	ori	r24, 0x01	; 1
     9b2:	89 bf       	out	0x39, r24	; 57
     9b4:	08 95       	ret

000009b6 <USART_Init>:
#include "usart.h"

void USART_Init( unsigned int baud )
{
	/* Set TxD (PD1) as output*/
	DDRD |= (1 << PD1);
     9b6:	21 b3       	in	r18, 0x11	; 17
     9b8:	22 60       	ori	r18, 0x02	; 2
     9ba:	21 bb       	out	0x11, r18	; 17
	/* Set baud rate */
	UBRRH = (unsigned char)(baud>>8);
     9bc:	90 bd       	out	0x20, r25	; 32
	UBRRL = (unsigned char)baud;
     9be:	89 b9       	out	0x09, r24	; 9
	/* Enable transmitter */
	UCSRB = (1<<RXEN) | (1<<TXEN);
     9c0:	88 e1       	ldi	r24, 0x18	; 24
     9c2:	8a b9       	out	0x0a, r24	; 10
	/* Set frame format: 8data, 1stop bit (|(1<<USBS) for 2stop bit)*/
	UCSRC = (1<<URSEL)|(3<<UCSZ0);
     9c4:	86 e8       	ldi	r24, 0x86	; 134
     9c6:	80 bd       	out	0x20, r24	; 32
     9c8:	08 95       	ret

000009ca <USART_Transmit>:
}

void USART_Transmit( unsigned char data )
{
	/* Wait for empty transmit buffer */
	while ( !( UCSRA & (1<<UDRE)) )
     9ca:	5d 9b       	sbis	0x0b, 5	; 11
     9cc:	fe cf       	rjmp	.-4      	; 0x9ca <USART_Transmit>
		;
	/* Put data into buffer, sends the data */
	UDR = data;
     9ce:	8c b9       	out	0x0c, r24	; 12
     9d0:	08 95       	ret

000009d2 <USART_Print>:
}

void USART_Print(const char *str)
{
     9d2:	cf 93       	push	r28
     9d4:	df 93       	push	r29
     9d6:	ec 01       	movw	r28, r24
	while (*str) USART_Transmit(*str++);
     9d8:	03 c0       	rjmp	.+6      	; 0x9e0 <USART_Print+0xe>
     9da:	21 96       	adiw	r28, 0x01	; 1
     9dc:	0e 94 e5 04 	call	0x9ca	; 0x9ca <USART_Transmit>
     9e0:	88 81       	ld	r24, Y
     9e2:	81 11       	cpse	r24, r1
     9e4:	fa cf       	rjmp	.-12     	; 0x9da <USART_Print+0x8>
}
     9e6:	df 91       	pop	r29
     9e8:	cf 91       	pop	r28
     9ea:	08 95       	ret

000009ec <USART_Receive>:

int USART_Receive( void )
{
	if (UCSRA &(1<<RXC)){
     9ec:	5f 9b       	sbis	0x0b, 7	; 11
     9ee:	03 c0       	rjmp	.+6      	; 0x9f6 <USART_Receive+0xa>
		return UDR;
     9f0:	8c b1       	in	r24, 0x0c	; 12
     9f2:	90 e0       	ldi	r25, 0x00	; 0
     9f4:	08 95       	ret
	}
	return -1;
     9f6:	8f ef       	ldi	r24, 0xFF	; 255
     9f8:	9f ef       	ldi	r25, 0xFF	; 255
     9fa:	08 95       	ret

000009fc <__subsf3>:
     9fc:	50 58       	subi	r21, 0x80	; 128

000009fe <__addsf3>:
     9fe:	bb 27       	eor	r27, r27
     a00:	aa 27       	eor	r26, r26
     a02:	0e 94 16 05 	call	0xa2c	; 0xa2c <__addsf3x>
     a06:	0c 94 31 06 	jmp	0xc62	; 0xc62 <__fp_round>
     a0a:	0e 94 23 06 	call	0xc46	; 0xc46 <__fp_pscA>
     a0e:	38 f0       	brcs	.+14     	; 0xa1e <__addsf3+0x20>
     a10:	0e 94 2a 06 	call	0xc54	; 0xc54 <__fp_pscB>
     a14:	20 f0       	brcs	.+8      	; 0xa1e <__addsf3+0x20>
     a16:	39 f4       	brne	.+14     	; 0xa26 <__addsf3+0x28>
     a18:	9f 3f       	cpi	r25, 0xFF	; 255
     a1a:	19 f4       	brne	.+6      	; 0xa22 <__addsf3+0x24>
     a1c:	26 f4       	brtc	.+8      	; 0xa26 <__addsf3+0x28>
     a1e:	0c 94 20 06 	jmp	0xc40	; 0xc40 <__fp_nan>
     a22:	0e f4       	brtc	.+2      	; 0xa26 <__addsf3+0x28>
     a24:	e0 95       	com	r30
     a26:	e7 fb       	bst	r30, 7
     a28:	0c 94 1a 06 	jmp	0xc34	; 0xc34 <__fp_inf>

00000a2c <__addsf3x>:
     a2c:	e9 2f       	mov	r30, r25
     a2e:	0e 94 42 06 	call	0xc84	; 0xc84 <__fp_split3>
     a32:	58 f3       	brcs	.-42     	; 0xa0a <__addsf3+0xc>
     a34:	ba 17       	cp	r27, r26
     a36:	62 07       	cpc	r22, r18
     a38:	73 07       	cpc	r23, r19
     a3a:	84 07       	cpc	r24, r20
     a3c:	95 07       	cpc	r25, r21
     a3e:	20 f0       	brcs	.+8      	; 0xa48 <__addsf3x+0x1c>
     a40:	79 f4       	brne	.+30     	; 0xa60 <__addsf3x+0x34>
     a42:	a6 f5       	brtc	.+104    	; 0xaac <__addsf3x+0x80>
     a44:	0c 94 64 06 	jmp	0xcc8	; 0xcc8 <__fp_zero>
     a48:	0e f4       	brtc	.+2      	; 0xa4c <__addsf3x+0x20>
     a4a:	e0 95       	com	r30
     a4c:	0b 2e       	mov	r0, r27
     a4e:	ba 2f       	mov	r27, r26
     a50:	a0 2d       	mov	r26, r0
     a52:	0b 01       	movw	r0, r22
     a54:	b9 01       	movw	r22, r18
     a56:	90 01       	movw	r18, r0
     a58:	0c 01       	movw	r0, r24
     a5a:	ca 01       	movw	r24, r20
     a5c:	a0 01       	movw	r20, r0
     a5e:	11 24       	eor	r1, r1
     a60:	ff 27       	eor	r31, r31
     a62:	59 1b       	sub	r21, r25
     a64:	99 f0       	breq	.+38     	; 0xa8c <__addsf3x+0x60>
     a66:	59 3f       	cpi	r21, 0xF9	; 249
     a68:	50 f4       	brcc	.+20     	; 0xa7e <__addsf3x+0x52>
     a6a:	50 3e       	cpi	r21, 0xE0	; 224
     a6c:	68 f1       	brcs	.+90     	; 0xac8 <__addsf3x+0x9c>
     a6e:	1a 16       	cp	r1, r26
     a70:	f0 40       	sbci	r31, 0x00	; 0
     a72:	a2 2f       	mov	r26, r18
     a74:	23 2f       	mov	r18, r19
     a76:	34 2f       	mov	r19, r20
     a78:	44 27       	eor	r20, r20
     a7a:	58 5f       	subi	r21, 0xF8	; 248
     a7c:	f3 cf       	rjmp	.-26     	; 0xa64 <__addsf3x+0x38>
     a7e:	46 95       	lsr	r20
     a80:	37 95       	ror	r19
     a82:	27 95       	ror	r18
     a84:	a7 95       	ror	r26
     a86:	f0 40       	sbci	r31, 0x00	; 0
     a88:	53 95       	inc	r21
     a8a:	c9 f7       	brne	.-14     	; 0xa7e <__addsf3x+0x52>
     a8c:	7e f4       	brtc	.+30     	; 0xaac <__addsf3x+0x80>
     a8e:	1f 16       	cp	r1, r31
     a90:	ba 0b       	sbc	r27, r26
     a92:	62 0b       	sbc	r22, r18
     a94:	73 0b       	sbc	r23, r19
     a96:	84 0b       	sbc	r24, r20
     a98:	ba f0       	brmi	.+46     	; 0xac8 <__addsf3x+0x9c>
     a9a:	91 50       	subi	r25, 0x01	; 1
     a9c:	a1 f0       	breq	.+40     	; 0xac6 <__addsf3x+0x9a>
     a9e:	ff 0f       	add	r31, r31
     aa0:	bb 1f       	adc	r27, r27
     aa2:	66 1f       	adc	r22, r22
     aa4:	77 1f       	adc	r23, r23
     aa6:	88 1f       	adc	r24, r24
     aa8:	c2 f7       	brpl	.-16     	; 0xa9a <__addsf3x+0x6e>
     aaa:	0e c0       	rjmp	.+28     	; 0xac8 <__addsf3x+0x9c>
     aac:	ba 0f       	add	r27, r26
     aae:	62 1f       	adc	r22, r18
     ab0:	73 1f       	adc	r23, r19
     ab2:	84 1f       	adc	r24, r20
     ab4:	48 f4       	brcc	.+18     	; 0xac8 <__addsf3x+0x9c>
     ab6:	87 95       	ror	r24
     ab8:	77 95       	ror	r23
     aba:	67 95       	ror	r22
     abc:	b7 95       	ror	r27
     abe:	f7 95       	ror	r31
     ac0:	9e 3f       	cpi	r25, 0xFE	; 254
     ac2:	08 f0       	brcs	.+2      	; 0xac6 <__addsf3x+0x9a>
     ac4:	b0 cf       	rjmp	.-160    	; 0xa26 <__addsf3+0x28>
     ac6:	93 95       	inc	r25
     ac8:	88 0f       	add	r24, r24
     aca:	08 f0       	brcs	.+2      	; 0xace <__addsf3x+0xa2>
     acc:	99 27       	eor	r25, r25
     ace:	ee 0f       	add	r30, r30
     ad0:	97 95       	ror	r25
     ad2:	87 95       	ror	r24
     ad4:	08 95       	ret

00000ad6 <__divsf3>:
     ad6:	0e 94 7f 05 	call	0xafe	; 0xafe <__divsf3x>
     ada:	0c 94 31 06 	jmp	0xc62	; 0xc62 <__fp_round>
     ade:	0e 94 2a 06 	call	0xc54	; 0xc54 <__fp_pscB>
     ae2:	58 f0       	brcs	.+22     	; 0xafa <__divsf3+0x24>
     ae4:	0e 94 23 06 	call	0xc46	; 0xc46 <__fp_pscA>
     ae8:	40 f0       	brcs	.+16     	; 0xafa <__divsf3+0x24>
     aea:	29 f4       	brne	.+10     	; 0xaf6 <__divsf3+0x20>
     aec:	5f 3f       	cpi	r21, 0xFF	; 255
     aee:	29 f0       	breq	.+10     	; 0xafa <__divsf3+0x24>
     af0:	0c 94 1a 06 	jmp	0xc34	; 0xc34 <__fp_inf>
     af4:	51 11       	cpse	r21, r1
     af6:	0c 94 65 06 	jmp	0xcca	; 0xcca <__fp_szero>
     afa:	0c 94 20 06 	jmp	0xc40	; 0xc40 <__fp_nan>

00000afe <__divsf3x>:
     afe:	0e 94 42 06 	call	0xc84	; 0xc84 <__fp_split3>
     b02:	68 f3       	brcs	.-38     	; 0xade <__divsf3+0x8>

00000b04 <__divsf3_pse>:
     b04:	99 23       	and	r25, r25
     b06:	b1 f3       	breq	.-20     	; 0xaf4 <__divsf3+0x1e>
     b08:	55 23       	and	r21, r21
     b0a:	91 f3       	breq	.-28     	; 0xaf0 <__divsf3+0x1a>
     b0c:	95 1b       	sub	r25, r21
     b0e:	55 0b       	sbc	r21, r21
     b10:	bb 27       	eor	r27, r27
     b12:	aa 27       	eor	r26, r26
     b14:	62 17       	cp	r22, r18
     b16:	73 07       	cpc	r23, r19
     b18:	84 07       	cpc	r24, r20
     b1a:	38 f0       	brcs	.+14     	; 0xb2a <__divsf3_pse+0x26>
     b1c:	9f 5f       	subi	r25, 0xFF	; 255
     b1e:	5f 4f       	sbci	r21, 0xFF	; 255
     b20:	22 0f       	add	r18, r18
     b22:	33 1f       	adc	r19, r19
     b24:	44 1f       	adc	r20, r20
     b26:	aa 1f       	adc	r26, r26
     b28:	a9 f3       	breq	.-22     	; 0xb14 <__divsf3_pse+0x10>
     b2a:	35 d0       	rcall	.+106    	; 0xb96 <__divsf3_pse+0x92>
     b2c:	0e 2e       	mov	r0, r30
     b2e:	3a f0       	brmi	.+14     	; 0xb3e <__divsf3_pse+0x3a>
     b30:	e0 e8       	ldi	r30, 0x80	; 128
     b32:	32 d0       	rcall	.+100    	; 0xb98 <__divsf3_pse+0x94>
     b34:	91 50       	subi	r25, 0x01	; 1
     b36:	50 40       	sbci	r21, 0x00	; 0
     b38:	e6 95       	lsr	r30
     b3a:	00 1c       	adc	r0, r0
     b3c:	ca f7       	brpl	.-14     	; 0xb30 <__divsf3_pse+0x2c>
     b3e:	2b d0       	rcall	.+86     	; 0xb96 <__divsf3_pse+0x92>
     b40:	fe 2f       	mov	r31, r30
     b42:	29 d0       	rcall	.+82     	; 0xb96 <__divsf3_pse+0x92>
     b44:	66 0f       	add	r22, r22
     b46:	77 1f       	adc	r23, r23
     b48:	88 1f       	adc	r24, r24
     b4a:	bb 1f       	adc	r27, r27
     b4c:	26 17       	cp	r18, r22
     b4e:	37 07       	cpc	r19, r23
     b50:	48 07       	cpc	r20, r24
     b52:	ab 07       	cpc	r26, r27
     b54:	b0 e8       	ldi	r27, 0x80	; 128
     b56:	09 f0       	breq	.+2      	; 0xb5a <__divsf3_pse+0x56>
     b58:	bb 0b       	sbc	r27, r27
     b5a:	80 2d       	mov	r24, r0
     b5c:	bf 01       	movw	r22, r30
     b5e:	ff 27       	eor	r31, r31
     b60:	93 58       	subi	r25, 0x83	; 131
     b62:	5f 4f       	sbci	r21, 0xFF	; 255
     b64:	3a f0       	brmi	.+14     	; 0xb74 <__divsf3_pse+0x70>
     b66:	9e 3f       	cpi	r25, 0xFE	; 254
     b68:	51 05       	cpc	r21, r1
     b6a:	78 f0       	brcs	.+30     	; 0xb8a <__divsf3_pse+0x86>
     b6c:	0c 94 1a 06 	jmp	0xc34	; 0xc34 <__fp_inf>
     b70:	0c 94 65 06 	jmp	0xcca	; 0xcca <__fp_szero>
     b74:	5f 3f       	cpi	r21, 0xFF	; 255
     b76:	e4 f3       	brlt	.-8      	; 0xb70 <__divsf3_pse+0x6c>
     b78:	98 3e       	cpi	r25, 0xE8	; 232
     b7a:	d4 f3       	brlt	.-12     	; 0xb70 <__divsf3_pse+0x6c>
     b7c:	86 95       	lsr	r24
     b7e:	77 95       	ror	r23
     b80:	67 95       	ror	r22
     b82:	b7 95       	ror	r27
     b84:	f7 95       	ror	r31
     b86:	9f 5f       	subi	r25, 0xFF	; 255
     b88:	c9 f7       	brne	.-14     	; 0xb7c <__divsf3_pse+0x78>
     b8a:	88 0f       	add	r24, r24
     b8c:	91 1d       	adc	r25, r1
     b8e:	96 95       	lsr	r25
     b90:	87 95       	ror	r24
     b92:	97 f9       	bld	r25, 7
     b94:	08 95       	ret
     b96:	e1 e0       	ldi	r30, 0x01	; 1
     b98:	66 0f       	add	r22, r22
     b9a:	77 1f       	adc	r23, r23
     b9c:	88 1f       	adc	r24, r24
     b9e:	bb 1f       	adc	r27, r27
     ba0:	62 17       	cp	r22, r18
     ba2:	73 07       	cpc	r23, r19
     ba4:	84 07       	cpc	r24, r20
     ba6:	ba 07       	cpc	r27, r26
     ba8:	20 f0       	brcs	.+8      	; 0xbb2 <__divsf3_pse+0xae>
     baa:	62 1b       	sub	r22, r18
     bac:	73 0b       	sbc	r23, r19
     bae:	84 0b       	sbc	r24, r20
     bb0:	ba 0b       	sbc	r27, r26
     bb2:	ee 1f       	adc	r30, r30
     bb4:	88 f7       	brcc	.-30     	; 0xb98 <__divsf3_pse+0x94>
     bb6:	e0 95       	com	r30
     bb8:	08 95       	ret

00000bba <__floatunsisf>:
     bba:	e8 94       	clt
     bbc:	09 c0       	rjmp	.+18     	; 0xbd0 <__floatsisf+0x12>

00000bbe <__floatsisf>:
     bbe:	97 fb       	bst	r25, 7
     bc0:	3e f4       	brtc	.+14     	; 0xbd0 <__floatsisf+0x12>
     bc2:	90 95       	com	r25
     bc4:	80 95       	com	r24
     bc6:	70 95       	com	r23
     bc8:	61 95       	neg	r22
     bca:	7f 4f       	sbci	r23, 0xFF	; 255
     bcc:	8f 4f       	sbci	r24, 0xFF	; 255
     bce:	9f 4f       	sbci	r25, 0xFF	; 255
     bd0:	99 23       	and	r25, r25
     bd2:	a9 f0       	breq	.+42     	; 0xbfe <__floatsisf+0x40>
     bd4:	f9 2f       	mov	r31, r25
     bd6:	96 e9       	ldi	r25, 0x96	; 150
     bd8:	bb 27       	eor	r27, r27
     bda:	93 95       	inc	r25
     bdc:	f6 95       	lsr	r31
     bde:	87 95       	ror	r24
     be0:	77 95       	ror	r23
     be2:	67 95       	ror	r22
     be4:	b7 95       	ror	r27
     be6:	f1 11       	cpse	r31, r1
     be8:	f8 cf       	rjmp	.-16     	; 0xbda <__floatsisf+0x1c>
     bea:	fa f4       	brpl	.+62     	; 0xc2a <__floatsisf+0x6c>
     bec:	bb 0f       	add	r27, r27
     bee:	11 f4       	brne	.+4      	; 0xbf4 <__floatsisf+0x36>
     bf0:	60 ff       	sbrs	r22, 0
     bf2:	1b c0       	rjmp	.+54     	; 0xc2a <__floatsisf+0x6c>
     bf4:	6f 5f       	subi	r22, 0xFF	; 255
     bf6:	7f 4f       	sbci	r23, 0xFF	; 255
     bf8:	8f 4f       	sbci	r24, 0xFF	; 255
     bfa:	9f 4f       	sbci	r25, 0xFF	; 255
     bfc:	16 c0       	rjmp	.+44     	; 0xc2a <__floatsisf+0x6c>
     bfe:	88 23       	and	r24, r24
     c00:	11 f0       	breq	.+4      	; 0xc06 <__floatsisf+0x48>
     c02:	96 e9       	ldi	r25, 0x96	; 150
     c04:	11 c0       	rjmp	.+34     	; 0xc28 <__floatsisf+0x6a>
     c06:	77 23       	and	r23, r23
     c08:	21 f0       	breq	.+8      	; 0xc12 <__floatsisf+0x54>
     c0a:	9e e8       	ldi	r25, 0x8E	; 142
     c0c:	87 2f       	mov	r24, r23
     c0e:	76 2f       	mov	r23, r22
     c10:	05 c0       	rjmp	.+10     	; 0xc1c <__floatsisf+0x5e>
     c12:	66 23       	and	r22, r22
     c14:	71 f0       	breq	.+28     	; 0xc32 <__floatsisf+0x74>
     c16:	96 e8       	ldi	r25, 0x86	; 134
     c18:	86 2f       	mov	r24, r22
     c1a:	70 e0       	ldi	r23, 0x00	; 0
     c1c:	60 e0       	ldi	r22, 0x00	; 0
     c1e:	2a f0       	brmi	.+10     	; 0xc2a <__floatsisf+0x6c>
     c20:	9a 95       	dec	r25
     c22:	66 0f       	add	r22, r22
     c24:	77 1f       	adc	r23, r23
     c26:	88 1f       	adc	r24, r24
     c28:	da f7       	brpl	.-10     	; 0xc20 <__floatsisf+0x62>
     c2a:	88 0f       	add	r24, r24
     c2c:	96 95       	lsr	r25
     c2e:	87 95       	ror	r24
     c30:	97 f9       	bld	r25, 7
     c32:	08 95       	ret

00000c34 <__fp_inf>:
     c34:	97 f9       	bld	r25, 7
     c36:	9f 67       	ori	r25, 0x7F	; 127
     c38:	80 e8       	ldi	r24, 0x80	; 128
     c3a:	70 e0       	ldi	r23, 0x00	; 0
     c3c:	60 e0       	ldi	r22, 0x00	; 0
     c3e:	08 95       	ret

00000c40 <__fp_nan>:
     c40:	9f ef       	ldi	r25, 0xFF	; 255
     c42:	80 ec       	ldi	r24, 0xC0	; 192
     c44:	08 95       	ret

00000c46 <__fp_pscA>:
     c46:	00 24       	eor	r0, r0
     c48:	0a 94       	dec	r0
     c4a:	16 16       	cp	r1, r22
     c4c:	17 06       	cpc	r1, r23
     c4e:	18 06       	cpc	r1, r24
     c50:	09 06       	cpc	r0, r25
     c52:	08 95       	ret

00000c54 <__fp_pscB>:
     c54:	00 24       	eor	r0, r0
     c56:	0a 94       	dec	r0
     c58:	12 16       	cp	r1, r18
     c5a:	13 06       	cpc	r1, r19
     c5c:	14 06       	cpc	r1, r20
     c5e:	05 06       	cpc	r0, r21
     c60:	08 95       	ret

00000c62 <__fp_round>:
     c62:	09 2e       	mov	r0, r25
     c64:	03 94       	inc	r0
     c66:	00 0c       	add	r0, r0
     c68:	11 f4       	brne	.+4      	; 0xc6e <__fp_round+0xc>
     c6a:	88 23       	and	r24, r24
     c6c:	52 f0       	brmi	.+20     	; 0xc82 <__fp_round+0x20>
     c6e:	bb 0f       	add	r27, r27
     c70:	40 f4       	brcc	.+16     	; 0xc82 <__fp_round+0x20>
     c72:	bf 2b       	or	r27, r31
     c74:	11 f4       	brne	.+4      	; 0xc7a <__fp_round+0x18>
     c76:	60 ff       	sbrs	r22, 0
     c78:	04 c0       	rjmp	.+8      	; 0xc82 <__fp_round+0x20>
     c7a:	6f 5f       	subi	r22, 0xFF	; 255
     c7c:	7f 4f       	sbci	r23, 0xFF	; 255
     c7e:	8f 4f       	sbci	r24, 0xFF	; 255
     c80:	9f 4f       	sbci	r25, 0xFF	; 255
     c82:	08 95       	ret

00000c84 <__fp_split3>:
     c84:	57 fd       	sbrc	r21, 7
     c86:	90 58       	subi	r25, 0x80	; 128
     c88:	44 0f       	add	r20, r20
     c8a:	55 1f       	adc	r21, r21
     c8c:	59 f0       	breq	.+22     	; 0xca4 <__fp_splitA+0x10>
     c8e:	5f 3f       	cpi	r21, 0xFF	; 255
     c90:	71 f0       	breq	.+28     	; 0xcae <__fp_splitA+0x1a>
     c92:	47 95       	ror	r20

00000c94 <__fp_splitA>:
     c94:	88 0f       	add	r24, r24
     c96:	97 fb       	bst	r25, 7
     c98:	99 1f       	adc	r25, r25
     c9a:	61 f0       	breq	.+24     	; 0xcb4 <__fp_splitA+0x20>
     c9c:	9f 3f       	cpi	r25, 0xFF	; 255
     c9e:	79 f0       	breq	.+30     	; 0xcbe <__fp_splitA+0x2a>
     ca0:	87 95       	ror	r24
     ca2:	08 95       	ret
     ca4:	12 16       	cp	r1, r18
     ca6:	13 06       	cpc	r1, r19
     ca8:	14 06       	cpc	r1, r20
     caa:	55 1f       	adc	r21, r21
     cac:	f2 cf       	rjmp	.-28     	; 0xc92 <__fp_split3+0xe>
     cae:	46 95       	lsr	r20
     cb0:	f1 df       	rcall	.-30     	; 0xc94 <__fp_splitA>
     cb2:	08 c0       	rjmp	.+16     	; 0xcc4 <__fp_splitA+0x30>
     cb4:	16 16       	cp	r1, r22
     cb6:	17 06       	cpc	r1, r23
     cb8:	18 06       	cpc	r1, r24
     cba:	99 1f       	adc	r25, r25
     cbc:	f1 cf       	rjmp	.-30     	; 0xca0 <__fp_splitA+0xc>
     cbe:	86 95       	lsr	r24
     cc0:	71 05       	cpc	r23, r1
     cc2:	61 05       	cpc	r22, r1
     cc4:	08 94       	sec
     cc6:	08 95       	ret

00000cc8 <__fp_zero>:
     cc8:	e8 94       	clt

00000cca <__fp_szero>:
     cca:	bb 27       	eor	r27, r27
     ccc:	66 27       	eor	r22, r22
     cce:	77 27       	eor	r23, r23
     cd0:	cb 01       	movw	r24, r22
     cd2:	97 f9       	bld	r25, 7
     cd4:	08 95       	ret

00000cd6 <__mulsf3>:
     cd6:	0e 94 7e 06 	call	0xcfc	; 0xcfc <__mulsf3x>
     cda:	0c 94 31 06 	jmp	0xc62	; 0xc62 <__fp_round>
     cde:	0e 94 23 06 	call	0xc46	; 0xc46 <__fp_pscA>
     ce2:	38 f0       	brcs	.+14     	; 0xcf2 <__mulsf3+0x1c>
     ce4:	0e 94 2a 06 	call	0xc54	; 0xc54 <__fp_pscB>
     ce8:	20 f0       	brcs	.+8      	; 0xcf2 <__mulsf3+0x1c>
     cea:	95 23       	and	r25, r21
     cec:	11 f0       	breq	.+4      	; 0xcf2 <__mulsf3+0x1c>
     cee:	0c 94 1a 06 	jmp	0xc34	; 0xc34 <__fp_inf>
     cf2:	0c 94 20 06 	jmp	0xc40	; 0xc40 <__fp_nan>
     cf6:	11 24       	eor	r1, r1
     cf8:	0c 94 65 06 	jmp	0xcca	; 0xcca <__fp_szero>

00000cfc <__mulsf3x>:
     cfc:	0e 94 42 06 	call	0xc84	; 0xc84 <__fp_split3>
     d00:	70 f3       	brcs	.-36     	; 0xcde <__mulsf3+0x8>

00000d02 <__mulsf3_pse>:
     d02:	95 9f       	mul	r25, r21
     d04:	c1 f3       	breq	.-16     	; 0xcf6 <__mulsf3+0x20>
     d06:	95 0f       	add	r25, r21
     d08:	50 e0       	ldi	r21, 0x00	; 0
     d0a:	55 1f       	adc	r21, r21
     d0c:	62 9f       	mul	r22, r18
     d0e:	f0 01       	movw	r30, r0
     d10:	72 9f       	mul	r23, r18
     d12:	bb 27       	eor	r27, r27
     d14:	f0 0d       	add	r31, r0
     d16:	b1 1d       	adc	r27, r1
     d18:	63 9f       	mul	r22, r19
     d1a:	aa 27       	eor	r26, r26
     d1c:	f0 0d       	add	r31, r0
     d1e:	b1 1d       	adc	r27, r1
     d20:	aa 1f       	adc	r26, r26
     d22:	64 9f       	mul	r22, r20
     d24:	66 27       	eor	r22, r22
     d26:	b0 0d       	add	r27, r0
     d28:	a1 1d       	adc	r26, r1
     d2a:	66 1f       	adc	r22, r22
     d2c:	82 9f       	mul	r24, r18
     d2e:	22 27       	eor	r18, r18
     d30:	b0 0d       	add	r27, r0
     d32:	a1 1d       	adc	r26, r1
     d34:	62 1f       	adc	r22, r18
     d36:	73 9f       	mul	r23, r19
     d38:	b0 0d       	add	r27, r0
     d3a:	a1 1d       	adc	r26, r1
     d3c:	62 1f       	adc	r22, r18
     d3e:	83 9f       	mul	r24, r19
     d40:	a0 0d       	add	r26, r0
     d42:	61 1d       	adc	r22, r1
     d44:	22 1f       	adc	r18, r18
     d46:	74 9f       	mul	r23, r20
     d48:	33 27       	eor	r19, r19
     d4a:	a0 0d       	add	r26, r0
     d4c:	61 1d       	adc	r22, r1
     d4e:	23 1f       	adc	r18, r19
     d50:	84 9f       	mul	r24, r20
     d52:	60 0d       	add	r22, r0
     d54:	21 1d       	adc	r18, r1
     d56:	82 2f       	mov	r24, r18
     d58:	76 2f       	mov	r23, r22
     d5a:	6a 2f       	mov	r22, r26
     d5c:	11 24       	eor	r1, r1
     d5e:	9f 57       	subi	r25, 0x7F	; 127
     d60:	50 40       	sbci	r21, 0x00	; 0
     d62:	9a f0       	brmi	.+38     	; 0xd8a <__mulsf3_pse+0x88>
     d64:	f1 f0       	breq	.+60     	; 0xda2 <__mulsf3_pse+0xa0>
     d66:	88 23       	and	r24, r24
     d68:	4a f0       	brmi	.+18     	; 0xd7c <__mulsf3_pse+0x7a>
     d6a:	ee 0f       	add	r30, r30
     d6c:	ff 1f       	adc	r31, r31
     d6e:	bb 1f       	adc	r27, r27
     d70:	66 1f       	adc	r22, r22
     d72:	77 1f       	adc	r23, r23
     d74:	88 1f       	adc	r24, r24
     d76:	91 50       	subi	r25, 0x01	; 1
     d78:	50 40       	sbci	r21, 0x00	; 0
     d7a:	a9 f7       	brne	.-22     	; 0xd66 <__mulsf3_pse+0x64>
     d7c:	9e 3f       	cpi	r25, 0xFE	; 254
     d7e:	51 05       	cpc	r21, r1
     d80:	80 f0       	brcs	.+32     	; 0xda2 <__mulsf3_pse+0xa0>
     d82:	0c 94 1a 06 	jmp	0xc34	; 0xc34 <__fp_inf>
     d86:	0c 94 65 06 	jmp	0xcca	; 0xcca <__fp_szero>
     d8a:	5f 3f       	cpi	r21, 0xFF	; 255
     d8c:	e4 f3       	brlt	.-8      	; 0xd86 <__mulsf3_pse+0x84>
     d8e:	98 3e       	cpi	r25, 0xE8	; 232
     d90:	d4 f3       	brlt	.-12     	; 0xd86 <__mulsf3_pse+0x84>
     d92:	86 95       	lsr	r24
     d94:	77 95       	ror	r23
     d96:	67 95       	ror	r22
     d98:	b7 95       	ror	r27
     d9a:	f7 95       	ror	r31
     d9c:	e7 95       	ror	r30
     d9e:	9f 5f       	subi	r25, 0xFF	; 255
     da0:	c1 f7       	brne	.-16     	; 0xd92 <__mulsf3_pse+0x90>
     da2:	fe 2b       	or	r31, r30
     da4:	88 0f       	add	r24, r24
     da6:	91 1d       	adc	r25, r1
     da8:	96 95       	lsr	r25
     daa:	87 95       	ror	r24
     dac:	97 f9       	bld	r25, 7
     dae:	08 95       	ret

00000db0 <__udivmodhi4>:
     db0:	aa 1b       	sub	r26, r26
     db2:	bb 1b       	sub	r27, r27
     db4:	51 e1       	ldi	r21, 0x11	; 17
     db6:	07 c0       	rjmp	.+14     	; 0xdc6 <__udivmodhi4_ep>

00000db8 <__udivmodhi4_loop>:
     db8:	aa 1f       	adc	r26, r26
     dba:	bb 1f       	adc	r27, r27
     dbc:	a6 17       	cp	r26, r22
     dbe:	b7 07       	cpc	r27, r23
     dc0:	10 f0       	brcs	.+4      	; 0xdc6 <__udivmodhi4_ep>
     dc2:	a6 1b       	sub	r26, r22
     dc4:	b7 0b       	sbc	r27, r23

00000dc6 <__udivmodhi4_ep>:
     dc6:	88 1f       	adc	r24, r24
     dc8:	99 1f       	adc	r25, r25
     dca:	5a 95       	dec	r21
     dcc:	a9 f7       	brne	.-22     	; 0xdb8 <__udivmodhi4_loop>
     dce:	80 95       	com	r24
     dd0:	90 95       	com	r25
     dd2:	bc 01       	movw	r22, r24
     dd4:	cd 01       	movw	r24, r26
     dd6:	08 95       	ret

00000dd8 <dtostrf>:
     dd8:	ef 92       	push	r14
     dda:	0f 93       	push	r16
     ddc:	1f 93       	push	r17
     dde:	cf 93       	push	r28
     de0:	df 93       	push	r29
     de2:	e8 01       	movw	r28, r16
     de4:	47 fd       	sbrc	r20, 7
     de6:	02 c0       	rjmp	.+4      	; 0xdec <dtostrf+0x14>
     de8:	34 e0       	ldi	r19, 0x04	; 4
     dea:	01 c0       	rjmp	.+2      	; 0xdee <dtostrf+0x16>
     dec:	34 e1       	ldi	r19, 0x14	; 20
     dee:	04 2e       	mov	r0, r20
     df0:	00 0c       	add	r0, r0
     df2:	55 0b       	sbc	r21, r21
     df4:	57 ff       	sbrs	r21, 7
     df6:	03 c0       	rjmp	.+6      	; 0xdfe <dtostrf+0x26>
     df8:	51 95       	neg	r21
     dfa:	41 95       	neg	r20
     dfc:	51 09       	sbc	r21, r1
     dfe:	e3 2e       	mov	r14, r19
     e00:	02 2f       	mov	r16, r18
     e02:	24 2f       	mov	r18, r20
     e04:	ae 01       	movw	r20, r28
     e06:	0e 94 1d 09 	call	0x123a	; 0x123a <dtoa_prf>
     e0a:	ce 01       	movw	r24, r28
     e0c:	df 91       	pop	r29
     e0e:	cf 91       	pop	r28
     e10:	1f 91       	pop	r17
     e12:	0f 91       	pop	r16
     e14:	ef 90       	pop	r14
     e16:	08 95       	ret

00000e18 <snprintf>:
     e18:	ae e0       	ldi	r26, 0x0E	; 14
     e1a:	b0 e0       	ldi	r27, 0x00	; 0
     e1c:	e2 e1       	ldi	r30, 0x12	; 18
     e1e:	f7 e0       	ldi	r31, 0x07	; 7
     e20:	0c 94 0d 0c 	jmp	0x181a	; 0x181a <__prologue_saves__+0x1c>
     e24:	0d 89       	ldd	r16, Y+21	; 0x15
     e26:	1e 89       	ldd	r17, Y+22	; 0x16
     e28:	8f 89       	ldd	r24, Y+23	; 0x17
     e2a:	98 8d       	ldd	r25, Y+24	; 0x18
     e2c:	26 e0       	ldi	r18, 0x06	; 6
     e2e:	2c 83       	std	Y+4, r18	; 0x04
     e30:	1a 83       	std	Y+2, r17	; 0x02
     e32:	09 83       	std	Y+1, r16	; 0x01
     e34:	97 ff       	sbrs	r25, 7
     e36:	02 c0       	rjmp	.+4      	; 0xe3c <snprintf+0x24>
     e38:	80 e0       	ldi	r24, 0x00	; 0
     e3a:	90 e8       	ldi	r25, 0x80	; 128
     e3c:	01 97       	sbiw	r24, 0x01	; 1
     e3e:	9e 83       	std	Y+6, r25	; 0x06
     e40:	8d 83       	std	Y+5, r24	; 0x05
     e42:	ae 01       	movw	r20, r28
     e44:	45 5e       	subi	r20, 0xE5	; 229
     e46:	5f 4f       	sbci	r21, 0xFF	; 255
     e48:	69 8d       	ldd	r22, Y+25	; 0x19
     e4a:	7a 8d       	ldd	r23, Y+26	; 0x1a
     e4c:	ce 01       	movw	r24, r28
     e4e:	01 96       	adiw	r24, 0x01	; 1
     e50:	0e 94 3c 07 	call	0xe78	; 0xe78 <vfprintf>
     e54:	4d 81       	ldd	r20, Y+5	; 0x05
     e56:	5e 81       	ldd	r21, Y+6	; 0x06
     e58:	57 fd       	sbrc	r21, 7
     e5a:	0a c0       	rjmp	.+20     	; 0xe70 <snprintf+0x58>
     e5c:	2f 81       	ldd	r18, Y+7	; 0x07
     e5e:	38 85       	ldd	r19, Y+8	; 0x08
     e60:	42 17       	cp	r20, r18
     e62:	53 07       	cpc	r21, r19
     e64:	0c f4       	brge	.+2      	; 0xe68 <snprintf+0x50>
     e66:	9a 01       	movw	r18, r20
     e68:	f8 01       	movw	r30, r16
     e6a:	e2 0f       	add	r30, r18
     e6c:	f3 1f       	adc	r31, r19
     e6e:	10 82       	st	Z, r1
     e70:	2e 96       	adiw	r28, 0x0e	; 14
     e72:	e4 e0       	ldi	r30, 0x04	; 4
     e74:	0c 94 29 0c 	jmp	0x1852	; 0x1852 <__epilogue_restores__+0x1c>

00000e78 <vfprintf>:
     e78:	ab e0       	ldi	r26, 0x0B	; 11
     e7a:	b0 e0       	ldi	r27, 0x00	; 0
     e7c:	e2 e4       	ldi	r30, 0x42	; 66
     e7e:	f7 e0       	ldi	r31, 0x07	; 7
     e80:	0c 94 ff 0b 	jmp	0x17fe	; 0x17fe <__prologue_saves__>
     e84:	6c 01       	movw	r12, r24
     e86:	7b 01       	movw	r14, r22
     e88:	8a 01       	movw	r16, r20
     e8a:	fc 01       	movw	r30, r24
     e8c:	17 82       	std	Z+7, r1	; 0x07
     e8e:	16 82       	std	Z+6, r1	; 0x06
     e90:	83 81       	ldd	r24, Z+3	; 0x03
     e92:	81 ff       	sbrs	r24, 1
     e94:	cc c1       	rjmp	.+920    	; 0x122e <vfprintf+0x3b6>
     e96:	ce 01       	movw	r24, r28
     e98:	01 96       	adiw	r24, 0x01	; 1
     e9a:	3c 01       	movw	r6, r24
     e9c:	f6 01       	movw	r30, r12
     e9e:	93 81       	ldd	r25, Z+3	; 0x03
     ea0:	f7 01       	movw	r30, r14
     ea2:	93 fd       	sbrc	r25, 3
     ea4:	85 91       	lpm	r24, Z+
     ea6:	93 ff       	sbrs	r25, 3
     ea8:	81 91       	ld	r24, Z+
     eaa:	7f 01       	movw	r14, r30
     eac:	88 23       	and	r24, r24
     eae:	09 f4       	brne	.+2      	; 0xeb2 <vfprintf+0x3a>
     eb0:	ba c1       	rjmp	.+884    	; 0x1226 <vfprintf+0x3ae>
     eb2:	85 32       	cpi	r24, 0x25	; 37
     eb4:	39 f4       	brne	.+14     	; 0xec4 <vfprintf+0x4c>
     eb6:	93 fd       	sbrc	r25, 3
     eb8:	85 91       	lpm	r24, Z+
     eba:	93 ff       	sbrs	r25, 3
     ebc:	81 91       	ld	r24, Z+
     ebe:	7f 01       	movw	r14, r30
     ec0:	85 32       	cpi	r24, 0x25	; 37
     ec2:	29 f4       	brne	.+10     	; 0xece <vfprintf+0x56>
     ec4:	b6 01       	movw	r22, r12
     ec6:	90 e0       	ldi	r25, 0x00	; 0
     ec8:	0e 94 65 0b 	call	0x16ca	; 0x16ca <fputc>
     ecc:	e7 cf       	rjmp	.-50     	; 0xe9c <vfprintf+0x24>
     ece:	91 2c       	mov	r9, r1
     ed0:	21 2c       	mov	r2, r1
     ed2:	31 2c       	mov	r3, r1
     ed4:	ff e1       	ldi	r31, 0x1F	; 31
     ed6:	f3 15       	cp	r31, r3
     ed8:	d8 f0       	brcs	.+54     	; 0xf10 <vfprintf+0x98>
     eda:	8b 32       	cpi	r24, 0x2B	; 43
     edc:	79 f0       	breq	.+30     	; 0xefc <vfprintf+0x84>
     ede:	38 f4       	brcc	.+14     	; 0xeee <vfprintf+0x76>
     ee0:	80 32       	cpi	r24, 0x20	; 32
     ee2:	79 f0       	breq	.+30     	; 0xf02 <vfprintf+0x8a>
     ee4:	83 32       	cpi	r24, 0x23	; 35
     ee6:	a1 f4       	brne	.+40     	; 0xf10 <vfprintf+0x98>
     ee8:	23 2d       	mov	r18, r3
     eea:	20 61       	ori	r18, 0x10	; 16
     eec:	1d c0       	rjmp	.+58     	; 0xf28 <vfprintf+0xb0>
     eee:	8d 32       	cpi	r24, 0x2D	; 45
     ef0:	61 f0       	breq	.+24     	; 0xf0a <vfprintf+0x92>
     ef2:	80 33       	cpi	r24, 0x30	; 48
     ef4:	69 f4       	brne	.+26     	; 0xf10 <vfprintf+0x98>
     ef6:	23 2d       	mov	r18, r3
     ef8:	21 60       	ori	r18, 0x01	; 1
     efa:	16 c0       	rjmp	.+44     	; 0xf28 <vfprintf+0xb0>
     efc:	83 2d       	mov	r24, r3
     efe:	82 60       	ori	r24, 0x02	; 2
     f00:	38 2e       	mov	r3, r24
     f02:	e3 2d       	mov	r30, r3
     f04:	e4 60       	ori	r30, 0x04	; 4
     f06:	3e 2e       	mov	r3, r30
     f08:	2a c0       	rjmp	.+84     	; 0xf5e <vfprintf+0xe6>
     f0a:	f3 2d       	mov	r31, r3
     f0c:	f8 60       	ori	r31, 0x08	; 8
     f0e:	1d c0       	rjmp	.+58     	; 0xf4a <vfprintf+0xd2>
     f10:	37 fc       	sbrc	r3, 7
     f12:	2d c0       	rjmp	.+90     	; 0xf6e <vfprintf+0xf6>
     f14:	20 ed       	ldi	r18, 0xD0	; 208
     f16:	28 0f       	add	r18, r24
     f18:	2a 30       	cpi	r18, 0x0A	; 10
     f1a:	40 f0       	brcs	.+16     	; 0xf2c <vfprintf+0xb4>
     f1c:	8e 32       	cpi	r24, 0x2E	; 46
     f1e:	b9 f4       	brne	.+46     	; 0xf4e <vfprintf+0xd6>
     f20:	36 fc       	sbrc	r3, 6
     f22:	81 c1       	rjmp	.+770    	; 0x1226 <vfprintf+0x3ae>
     f24:	23 2d       	mov	r18, r3
     f26:	20 64       	ori	r18, 0x40	; 64
     f28:	32 2e       	mov	r3, r18
     f2a:	19 c0       	rjmp	.+50     	; 0xf5e <vfprintf+0xe6>
     f2c:	36 fe       	sbrs	r3, 6
     f2e:	06 c0       	rjmp	.+12     	; 0xf3c <vfprintf+0xc4>
     f30:	8a e0       	ldi	r24, 0x0A	; 10
     f32:	98 9e       	mul	r9, r24
     f34:	20 0d       	add	r18, r0
     f36:	11 24       	eor	r1, r1
     f38:	92 2e       	mov	r9, r18
     f3a:	11 c0       	rjmp	.+34     	; 0xf5e <vfprintf+0xe6>
     f3c:	ea e0       	ldi	r30, 0x0A	; 10
     f3e:	2e 9e       	mul	r2, r30
     f40:	20 0d       	add	r18, r0
     f42:	11 24       	eor	r1, r1
     f44:	22 2e       	mov	r2, r18
     f46:	f3 2d       	mov	r31, r3
     f48:	f0 62       	ori	r31, 0x20	; 32
     f4a:	3f 2e       	mov	r3, r31
     f4c:	08 c0       	rjmp	.+16     	; 0xf5e <vfprintf+0xe6>
     f4e:	8c 36       	cpi	r24, 0x6C	; 108
     f50:	21 f4       	brne	.+8      	; 0xf5a <vfprintf+0xe2>
     f52:	83 2d       	mov	r24, r3
     f54:	80 68       	ori	r24, 0x80	; 128
     f56:	38 2e       	mov	r3, r24
     f58:	02 c0       	rjmp	.+4      	; 0xf5e <vfprintf+0xe6>
     f5a:	88 36       	cpi	r24, 0x68	; 104
     f5c:	41 f4       	brne	.+16     	; 0xf6e <vfprintf+0xf6>
     f5e:	f7 01       	movw	r30, r14
     f60:	93 fd       	sbrc	r25, 3
     f62:	85 91       	lpm	r24, Z+
     f64:	93 ff       	sbrs	r25, 3
     f66:	81 91       	ld	r24, Z+
     f68:	7f 01       	movw	r14, r30
     f6a:	81 11       	cpse	r24, r1
     f6c:	b3 cf       	rjmp	.-154    	; 0xed4 <vfprintf+0x5c>
     f6e:	98 2f       	mov	r25, r24
     f70:	9f 7d       	andi	r25, 0xDF	; 223
     f72:	95 54       	subi	r25, 0x45	; 69
     f74:	93 30       	cpi	r25, 0x03	; 3
     f76:	28 f4       	brcc	.+10     	; 0xf82 <vfprintf+0x10a>
     f78:	0c 5f       	subi	r16, 0xFC	; 252
     f7a:	1f 4f       	sbci	r17, 0xFF	; 255
     f7c:	9f e3       	ldi	r25, 0x3F	; 63
     f7e:	99 83       	std	Y+1, r25	; 0x01
     f80:	0d c0       	rjmp	.+26     	; 0xf9c <vfprintf+0x124>
     f82:	83 36       	cpi	r24, 0x63	; 99
     f84:	31 f0       	breq	.+12     	; 0xf92 <vfprintf+0x11a>
     f86:	83 37       	cpi	r24, 0x73	; 115
     f88:	71 f0       	breq	.+28     	; 0xfa6 <vfprintf+0x12e>
     f8a:	83 35       	cpi	r24, 0x53	; 83
     f8c:	09 f0       	breq	.+2      	; 0xf90 <vfprintf+0x118>
     f8e:	59 c0       	rjmp	.+178    	; 0x1042 <vfprintf+0x1ca>
     f90:	21 c0       	rjmp	.+66     	; 0xfd4 <vfprintf+0x15c>
     f92:	f8 01       	movw	r30, r16
     f94:	80 81       	ld	r24, Z
     f96:	89 83       	std	Y+1, r24	; 0x01
     f98:	0e 5f       	subi	r16, 0xFE	; 254
     f9a:	1f 4f       	sbci	r17, 0xFF	; 255
     f9c:	88 24       	eor	r8, r8
     f9e:	83 94       	inc	r8
     fa0:	91 2c       	mov	r9, r1
     fa2:	53 01       	movw	r10, r6
     fa4:	13 c0       	rjmp	.+38     	; 0xfcc <vfprintf+0x154>
     fa6:	28 01       	movw	r4, r16
     fa8:	f2 e0       	ldi	r31, 0x02	; 2
     faa:	4f 0e       	add	r4, r31
     fac:	51 1c       	adc	r5, r1
     fae:	f8 01       	movw	r30, r16
     fb0:	a0 80       	ld	r10, Z
     fb2:	b1 80       	ldd	r11, Z+1	; 0x01
     fb4:	36 fe       	sbrs	r3, 6
     fb6:	03 c0       	rjmp	.+6      	; 0xfbe <vfprintf+0x146>
     fb8:	69 2d       	mov	r22, r9
     fba:	70 e0       	ldi	r23, 0x00	; 0
     fbc:	02 c0       	rjmp	.+4      	; 0xfc2 <vfprintf+0x14a>
     fbe:	6f ef       	ldi	r22, 0xFF	; 255
     fc0:	7f ef       	ldi	r23, 0xFF	; 255
     fc2:	c5 01       	movw	r24, r10
     fc4:	0e 94 5a 0b 	call	0x16b4	; 0x16b4 <strnlen>
     fc8:	4c 01       	movw	r8, r24
     fca:	82 01       	movw	r16, r4
     fcc:	f3 2d       	mov	r31, r3
     fce:	ff 77       	andi	r31, 0x7F	; 127
     fd0:	3f 2e       	mov	r3, r31
     fd2:	16 c0       	rjmp	.+44     	; 0x1000 <vfprintf+0x188>
     fd4:	28 01       	movw	r4, r16
     fd6:	22 e0       	ldi	r18, 0x02	; 2
     fd8:	42 0e       	add	r4, r18
     fda:	51 1c       	adc	r5, r1
     fdc:	f8 01       	movw	r30, r16
     fde:	a0 80       	ld	r10, Z
     fe0:	b1 80       	ldd	r11, Z+1	; 0x01
     fe2:	36 fe       	sbrs	r3, 6
     fe4:	03 c0       	rjmp	.+6      	; 0xfec <vfprintf+0x174>
     fe6:	69 2d       	mov	r22, r9
     fe8:	70 e0       	ldi	r23, 0x00	; 0
     fea:	02 c0       	rjmp	.+4      	; 0xff0 <vfprintf+0x178>
     fec:	6f ef       	ldi	r22, 0xFF	; 255
     fee:	7f ef       	ldi	r23, 0xFF	; 255
     ff0:	c5 01       	movw	r24, r10
     ff2:	0e 94 4f 0b 	call	0x169e	; 0x169e <strnlen_P>
     ff6:	4c 01       	movw	r8, r24
     ff8:	f3 2d       	mov	r31, r3
     ffa:	f0 68       	ori	r31, 0x80	; 128
     ffc:	3f 2e       	mov	r3, r31
     ffe:	82 01       	movw	r16, r4
    1000:	33 fc       	sbrc	r3, 3
    1002:	1b c0       	rjmp	.+54     	; 0x103a <vfprintf+0x1c2>
    1004:	82 2d       	mov	r24, r2
    1006:	90 e0       	ldi	r25, 0x00	; 0
    1008:	88 16       	cp	r8, r24
    100a:	99 06       	cpc	r9, r25
    100c:	b0 f4       	brcc	.+44     	; 0x103a <vfprintf+0x1c2>
    100e:	b6 01       	movw	r22, r12
    1010:	80 e2       	ldi	r24, 0x20	; 32
    1012:	90 e0       	ldi	r25, 0x00	; 0
    1014:	0e 94 65 0b 	call	0x16ca	; 0x16ca <fputc>
    1018:	2a 94       	dec	r2
    101a:	f4 cf       	rjmp	.-24     	; 0x1004 <vfprintf+0x18c>
    101c:	f5 01       	movw	r30, r10
    101e:	37 fc       	sbrc	r3, 7
    1020:	85 91       	lpm	r24, Z+
    1022:	37 fe       	sbrs	r3, 7
    1024:	81 91       	ld	r24, Z+
    1026:	5f 01       	movw	r10, r30
    1028:	b6 01       	movw	r22, r12
    102a:	90 e0       	ldi	r25, 0x00	; 0
    102c:	0e 94 65 0b 	call	0x16ca	; 0x16ca <fputc>
    1030:	21 10       	cpse	r2, r1
    1032:	2a 94       	dec	r2
    1034:	21 e0       	ldi	r18, 0x01	; 1
    1036:	82 1a       	sub	r8, r18
    1038:	91 08       	sbc	r9, r1
    103a:	81 14       	cp	r8, r1
    103c:	91 04       	cpc	r9, r1
    103e:	71 f7       	brne	.-36     	; 0x101c <vfprintf+0x1a4>
    1040:	e8 c0       	rjmp	.+464    	; 0x1212 <vfprintf+0x39a>
    1042:	84 36       	cpi	r24, 0x64	; 100
    1044:	11 f0       	breq	.+4      	; 0x104a <vfprintf+0x1d2>
    1046:	89 36       	cpi	r24, 0x69	; 105
    1048:	41 f5       	brne	.+80     	; 0x109a <vfprintf+0x222>
    104a:	f8 01       	movw	r30, r16
    104c:	37 fe       	sbrs	r3, 7
    104e:	07 c0       	rjmp	.+14     	; 0x105e <vfprintf+0x1e6>
    1050:	60 81       	ld	r22, Z
    1052:	71 81       	ldd	r23, Z+1	; 0x01
    1054:	82 81       	ldd	r24, Z+2	; 0x02
    1056:	93 81       	ldd	r25, Z+3	; 0x03
    1058:	0c 5f       	subi	r16, 0xFC	; 252
    105a:	1f 4f       	sbci	r17, 0xFF	; 255
    105c:	08 c0       	rjmp	.+16     	; 0x106e <vfprintf+0x1f6>
    105e:	60 81       	ld	r22, Z
    1060:	71 81       	ldd	r23, Z+1	; 0x01
    1062:	07 2e       	mov	r0, r23
    1064:	00 0c       	add	r0, r0
    1066:	88 0b       	sbc	r24, r24
    1068:	99 0b       	sbc	r25, r25
    106a:	0e 5f       	subi	r16, 0xFE	; 254
    106c:	1f 4f       	sbci	r17, 0xFF	; 255
    106e:	f3 2d       	mov	r31, r3
    1070:	ff 76       	andi	r31, 0x6F	; 111
    1072:	3f 2e       	mov	r3, r31
    1074:	97 ff       	sbrs	r25, 7
    1076:	09 c0       	rjmp	.+18     	; 0x108a <vfprintf+0x212>
    1078:	90 95       	com	r25
    107a:	80 95       	com	r24
    107c:	70 95       	com	r23
    107e:	61 95       	neg	r22
    1080:	7f 4f       	sbci	r23, 0xFF	; 255
    1082:	8f 4f       	sbci	r24, 0xFF	; 255
    1084:	9f 4f       	sbci	r25, 0xFF	; 255
    1086:	f0 68       	ori	r31, 0x80	; 128
    1088:	3f 2e       	mov	r3, r31
    108a:	2a e0       	ldi	r18, 0x0A	; 10
    108c:	30 e0       	ldi	r19, 0x00	; 0
    108e:	a3 01       	movw	r20, r6
    1090:	0e 94 a1 0b 	call	0x1742	; 0x1742 <__ultoa_invert>
    1094:	88 2e       	mov	r8, r24
    1096:	86 18       	sub	r8, r6
    1098:	45 c0       	rjmp	.+138    	; 0x1124 <vfprintf+0x2ac>
    109a:	85 37       	cpi	r24, 0x75	; 117
    109c:	31 f4       	brne	.+12     	; 0x10aa <vfprintf+0x232>
    109e:	23 2d       	mov	r18, r3
    10a0:	2f 7e       	andi	r18, 0xEF	; 239
    10a2:	b2 2e       	mov	r11, r18
    10a4:	2a e0       	ldi	r18, 0x0A	; 10
    10a6:	30 e0       	ldi	r19, 0x00	; 0
    10a8:	25 c0       	rjmp	.+74     	; 0x10f4 <vfprintf+0x27c>
    10aa:	93 2d       	mov	r25, r3
    10ac:	99 7f       	andi	r25, 0xF9	; 249
    10ae:	b9 2e       	mov	r11, r25
    10b0:	8f 36       	cpi	r24, 0x6F	; 111
    10b2:	c1 f0       	breq	.+48     	; 0x10e4 <vfprintf+0x26c>
    10b4:	18 f4       	brcc	.+6      	; 0x10bc <vfprintf+0x244>
    10b6:	88 35       	cpi	r24, 0x58	; 88
    10b8:	79 f0       	breq	.+30     	; 0x10d8 <vfprintf+0x260>
    10ba:	b5 c0       	rjmp	.+362    	; 0x1226 <vfprintf+0x3ae>
    10bc:	80 37       	cpi	r24, 0x70	; 112
    10be:	19 f0       	breq	.+6      	; 0x10c6 <vfprintf+0x24e>
    10c0:	88 37       	cpi	r24, 0x78	; 120
    10c2:	21 f0       	breq	.+8      	; 0x10cc <vfprintf+0x254>
    10c4:	b0 c0       	rjmp	.+352    	; 0x1226 <vfprintf+0x3ae>
    10c6:	e9 2f       	mov	r30, r25
    10c8:	e0 61       	ori	r30, 0x10	; 16
    10ca:	be 2e       	mov	r11, r30
    10cc:	b4 fe       	sbrs	r11, 4
    10ce:	0d c0       	rjmp	.+26     	; 0x10ea <vfprintf+0x272>
    10d0:	fb 2d       	mov	r31, r11
    10d2:	f4 60       	ori	r31, 0x04	; 4
    10d4:	bf 2e       	mov	r11, r31
    10d6:	09 c0       	rjmp	.+18     	; 0x10ea <vfprintf+0x272>
    10d8:	34 fe       	sbrs	r3, 4
    10da:	0a c0       	rjmp	.+20     	; 0x10f0 <vfprintf+0x278>
    10dc:	29 2f       	mov	r18, r25
    10de:	26 60       	ori	r18, 0x06	; 6
    10e0:	b2 2e       	mov	r11, r18
    10e2:	06 c0       	rjmp	.+12     	; 0x10f0 <vfprintf+0x278>
    10e4:	28 e0       	ldi	r18, 0x08	; 8
    10e6:	30 e0       	ldi	r19, 0x00	; 0
    10e8:	05 c0       	rjmp	.+10     	; 0x10f4 <vfprintf+0x27c>
    10ea:	20 e1       	ldi	r18, 0x10	; 16
    10ec:	30 e0       	ldi	r19, 0x00	; 0
    10ee:	02 c0       	rjmp	.+4      	; 0x10f4 <vfprintf+0x27c>
    10f0:	20 e1       	ldi	r18, 0x10	; 16
    10f2:	32 e0       	ldi	r19, 0x02	; 2
    10f4:	f8 01       	movw	r30, r16
    10f6:	b7 fe       	sbrs	r11, 7
    10f8:	07 c0       	rjmp	.+14     	; 0x1108 <vfprintf+0x290>
    10fa:	60 81       	ld	r22, Z
    10fc:	71 81       	ldd	r23, Z+1	; 0x01
    10fe:	82 81       	ldd	r24, Z+2	; 0x02
    1100:	93 81       	ldd	r25, Z+3	; 0x03
    1102:	0c 5f       	subi	r16, 0xFC	; 252
    1104:	1f 4f       	sbci	r17, 0xFF	; 255
    1106:	06 c0       	rjmp	.+12     	; 0x1114 <vfprintf+0x29c>
    1108:	60 81       	ld	r22, Z
    110a:	71 81       	ldd	r23, Z+1	; 0x01
    110c:	80 e0       	ldi	r24, 0x00	; 0
    110e:	90 e0       	ldi	r25, 0x00	; 0
    1110:	0e 5f       	subi	r16, 0xFE	; 254
    1112:	1f 4f       	sbci	r17, 0xFF	; 255
    1114:	a3 01       	movw	r20, r6
    1116:	0e 94 a1 0b 	call	0x1742	; 0x1742 <__ultoa_invert>
    111a:	88 2e       	mov	r8, r24
    111c:	86 18       	sub	r8, r6
    111e:	fb 2d       	mov	r31, r11
    1120:	ff 77       	andi	r31, 0x7F	; 127
    1122:	3f 2e       	mov	r3, r31
    1124:	36 fe       	sbrs	r3, 6
    1126:	0d c0       	rjmp	.+26     	; 0x1142 <vfprintf+0x2ca>
    1128:	23 2d       	mov	r18, r3
    112a:	2e 7f       	andi	r18, 0xFE	; 254
    112c:	a2 2e       	mov	r10, r18
    112e:	89 14       	cp	r8, r9
    1130:	58 f4       	brcc	.+22     	; 0x1148 <vfprintf+0x2d0>
    1132:	34 fe       	sbrs	r3, 4
    1134:	0b c0       	rjmp	.+22     	; 0x114c <vfprintf+0x2d4>
    1136:	32 fc       	sbrc	r3, 2
    1138:	09 c0       	rjmp	.+18     	; 0x114c <vfprintf+0x2d4>
    113a:	83 2d       	mov	r24, r3
    113c:	8e 7e       	andi	r24, 0xEE	; 238
    113e:	a8 2e       	mov	r10, r24
    1140:	05 c0       	rjmp	.+10     	; 0x114c <vfprintf+0x2d4>
    1142:	b8 2c       	mov	r11, r8
    1144:	a3 2c       	mov	r10, r3
    1146:	03 c0       	rjmp	.+6      	; 0x114e <vfprintf+0x2d6>
    1148:	b8 2c       	mov	r11, r8
    114a:	01 c0       	rjmp	.+2      	; 0x114e <vfprintf+0x2d6>
    114c:	b9 2c       	mov	r11, r9
    114e:	a4 fe       	sbrs	r10, 4
    1150:	0f c0       	rjmp	.+30     	; 0x1170 <vfprintf+0x2f8>
    1152:	fe 01       	movw	r30, r28
    1154:	e8 0d       	add	r30, r8
    1156:	f1 1d       	adc	r31, r1
    1158:	80 81       	ld	r24, Z
    115a:	80 33       	cpi	r24, 0x30	; 48
    115c:	21 f4       	brne	.+8      	; 0x1166 <vfprintf+0x2ee>
    115e:	9a 2d       	mov	r25, r10
    1160:	99 7e       	andi	r25, 0xE9	; 233
    1162:	a9 2e       	mov	r10, r25
    1164:	09 c0       	rjmp	.+18     	; 0x1178 <vfprintf+0x300>
    1166:	a2 fe       	sbrs	r10, 2
    1168:	06 c0       	rjmp	.+12     	; 0x1176 <vfprintf+0x2fe>
    116a:	b3 94       	inc	r11
    116c:	b3 94       	inc	r11
    116e:	04 c0       	rjmp	.+8      	; 0x1178 <vfprintf+0x300>
    1170:	8a 2d       	mov	r24, r10
    1172:	86 78       	andi	r24, 0x86	; 134
    1174:	09 f0       	breq	.+2      	; 0x1178 <vfprintf+0x300>
    1176:	b3 94       	inc	r11
    1178:	a3 fc       	sbrc	r10, 3
    117a:	11 c0       	rjmp	.+34     	; 0x119e <vfprintf+0x326>
    117c:	a0 fe       	sbrs	r10, 0
    117e:	06 c0       	rjmp	.+12     	; 0x118c <vfprintf+0x314>
    1180:	b2 14       	cp	r11, r2
    1182:	88 f4       	brcc	.+34     	; 0x11a6 <vfprintf+0x32e>
    1184:	28 0c       	add	r2, r8
    1186:	92 2c       	mov	r9, r2
    1188:	9b 18       	sub	r9, r11
    118a:	0e c0       	rjmp	.+28     	; 0x11a8 <vfprintf+0x330>
    118c:	b2 14       	cp	r11, r2
    118e:	60 f4       	brcc	.+24     	; 0x11a8 <vfprintf+0x330>
    1190:	b6 01       	movw	r22, r12
    1192:	80 e2       	ldi	r24, 0x20	; 32
    1194:	90 e0       	ldi	r25, 0x00	; 0
    1196:	0e 94 65 0b 	call	0x16ca	; 0x16ca <fputc>
    119a:	b3 94       	inc	r11
    119c:	f7 cf       	rjmp	.-18     	; 0x118c <vfprintf+0x314>
    119e:	b2 14       	cp	r11, r2
    11a0:	18 f4       	brcc	.+6      	; 0x11a8 <vfprintf+0x330>
    11a2:	2b 18       	sub	r2, r11
    11a4:	02 c0       	rjmp	.+4      	; 0x11aa <vfprintf+0x332>
    11a6:	98 2c       	mov	r9, r8
    11a8:	21 2c       	mov	r2, r1
    11aa:	a4 fe       	sbrs	r10, 4
    11ac:	10 c0       	rjmp	.+32     	; 0x11ce <vfprintf+0x356>
    11ae:	b6 01       	movw	r22, r12
    11b0:	80 e3       	ldi	r24, 0x30	; 48
    11b2:	90 e0       	ldi	r25, 0x00	; 0
    11b4:	0e 94 65 0b 	call	0x16ca	; 0x16ca <fputc>
    11b8:	a2 fe       	sbrs	r10, 2
    11ba:	17 c0       	rjmp	.+46     	; 0x11ea <vfprintf+0x372>
    11bc:	a1 fc       	sbrc	r10, 1
    11be:	03 c0       	rjmp	.+6      	; 0x11c6 <vfprintf+0x34e>
    11c0:	88 e7       	ldi	r24, 0x78	; 120
    11c2:	90 e0       	ldi	r25, 0x00	; 0
    11c4:	02 c0       	rjmp	.+4      	; 0x11ca <vfprintf+0x352>
    11c6:	88 e5       	ldi	r24, 0x58	; 88
    11c8:	90 e0       	ldi	r25, 0x00	; 0
    11ca:	b6 01       	movw	r22, r12
    11cc:	0c c0       	rjmp	.+24     	; 0x11e6 <vfprintf+0x36e>
    11ce:	8a 2d       	mov	r24, r10
    11d0:	86 78       	andi	r24, 0x86	; 134
    11d2:	59 f0       	breq	.+22     	; 0x11ea <vfprintf+0x372>
    11d4:	a1 fe       	sbrs	r10, 1
    11d6:	02 c0       	rjmp	.+4      	; 0x11dc <vfprintf+0x364>
    11d8:	8b e2       	ldi	r24, 0x2B	; 43
    11da:	01 c0       	rjmp	.+2      	; 0x11de <vfprintf+0x366>
    11dc:	80 e2       	ldi	r24, 0x20	; 32
    11de:	a7 fc       	sbrc	r10, 7
    11e0:	8d e2       	ldi	r24, 0x2D	; 45
    11e2:	b6 01       	movw	r22, r12
    11e4:	90 e0       	ldi	r25, 0x00	; 0
    11e6:	0e 94 65 0b 	call	0x16ca	; 0x16ca <fputc>
    11ea:	89 14       	cp	r8, r9
    11ec:	38 f4       	brcc	.+14     	; 0x11fc <vfprintf+0x384>
    11ee:	b6 01       	movw	r22, r12
    11f0:	80 e3       	ldi	r24, 0x30	; 48
    11f2:	90 e0       	ldi	r25, 0x00	; 0
    11f4:	0e 94 65 0b 	call	0x16ca	; 0x16ca <fputc>
    11f8:	9a 94       	dec	r9
    11fa:	f7 cf       	rjmp	.-18     	; 0x11ea <vfprintf+0x372>
    11fc:	8a 94       	dec	r8
    11fe:	f3 01       	movw	r30, r6
    1200:	e8 0d       	add	r30, r8
    1202:	f1 1d       	adc	r31, r1
    1204:	80 81       	ld	r24, Z
    1206:	b6 01       	movw	r22, r12
    1208:	90 e0       	ldi	r25, 0x00	; 0
    120a:	0e 94 65 0b 	call	0x16ca	; 0x16ca <fputc>
    120e:	81 10       	cpse	r8, r1
    1210:	f5 cf       	rjmp	.-22     	; 0x11fc <vfprintf+0x384>
    1212:	22 20       	and	r2, r2
    1214:	09 f4       	brne	.+2      	; 0x1218 <vfprintf+0x3a0>
    1216:	42 ce       	rjmp	.-892    	; 0xe9c <vfprintf+0x24>
    1218:	b6 01       	movw	r22, r12
    121a:	80 e2       	ldi	r24, 0x20	; 32
    121c:	90 e0       	ldi	r25, 0x00	; 0
    121e:	0e 94 65 0b 	call	0x16ca	; 0x16ca <fputc>
    1222:	2a 94       	dec	r2
    1224:	f6 cf       	rjmp	.-20     	; 0x1212 <vfprintf+0x39a>
    1226:	f6 01       	movw	r30, r12
    1228:	86 81       	ldd	r24, Z+6	; 0x06
    122a:	97 81       	ldd	r25, Z+7	; 0x07
    122c:	02 c0       	rjmp	.+4      	; 0x1232 <vfprintf+0x3ba>
    122e:	8f ef       	ldi	r24, 0xFF	; 255
    1230:	9f ef       	ldi	r25, 0xFF	; 255
    1232:	2b 96       	adiw	r28, 0x0b	; 11
    1234:	e2 e1       	ldi	r30, 0x12	; 18
    1236:	0c 94 1b 0c 	jmp	0x1836	; 0x1836 <__epilogue_restores__>

0000123a <dtoa_prf>:
    123a:	a9 e0       	ldi	r26, 0x09	; 9
    123c:	b0 e0       	ldi	r27, 0x00	; 0
    123e:	e3 e2       	ldi	r30, 0x23	; 35
    1240:	f9 e0       	ldi	r31, 0x09	; 9
    1242:	0c 94 05 0c 	jmp	0x180a	; 0x180a <__prologue_saves__+0xc>
    1246:	6a 01       	movw	r12, r20
    1248:	12 2f       	mov	r17, r18
    124a:	b0 2e       	mov	r11, r16
    124c:	2b e3       	ldi	r18, 0x3B	; 59
    124e:	20 17       	cp	r18, r16
    1250:	20 f0       	brcs	.+8      	; 0x125a <dtoa_prf+0x20>
    1252:	ff 24       	eor	r15, r15
    1254:	f3 94       	inc	r15
    1256:	f0 0e       	add	r15, r16
    1258:	02 c0       	rjmp	.+4      	; 0x125e <dtoa_prf+0x24>
    125a:	2c e3       	ldi	r18, 0x3C	; 60
    125c:	f2 2e       	mov	r15, r18
    125e:	0f 2d       	mov	r16, r15
    1260:	27 e0       	ldi	r18, 0x07	; 7
    1262:	ae 01       	movw	r20, r28
    1264:	4f 5f       	subi	r20, 0xFF	; 255
    1266:	5f 4f       	sbci	r21, 0xFF	; 255
    1268:	0e 94 77 0a 	call	0x14ee	; 0x14ee <__ftoa_engine>
    126c:	bc 01       	movw	r22, r24
    126e:	49 81       	ldd	r20, Y+1	; 0x01
    1270:	84 2f       	mov	r24, r20
    1272:	89 70       	andi	r24, 0x09	; 9
    1274:	81 30       	cpi	r24, 0x01	; 1
    1276:	31 f0       	breq	.+12     	; 0x1284 <dtoa_prf+0x4a>
    1278:	e1 fc       	sbrc	r14, 1
    127a:	06 c0       	rjmp	.+12     	; 0x1288 <dtoa_prf+0x4e>
    127c:	e0 fe       	sbrs	r14, 0
    127e:	06 c0       	rjmp	.+12     	; 0x128c <dtoa_prf+0x52>
    1280:	90 e2       	ldi	r25, 0x20	; 32
    1282:	05 c0       	rjmp	.+10     	; 0x128e <dtoa_prf+0x54>
    1284:	9d e2       	ldi	r25, 0x2D	; 45
    1286:	03 c0       	rjmp	.+6      	; 0x128e <dtoa_prf+0x54>
    1288:	9b e2       	ldi	r25, 0x2B	; 43
    128a:	01 c0       	rjmp	.+2      	; 0x128e <dtoa_prf+0x54>
    128c:	90 e0       	ldi	r25, 0x00	; 0
    128e:	5e 2d       	mov	r21, r14
    1290:	50 71       	andi	r21, 0x10	; 16
    1292:	43 ff       	sbrs	r20, 3
    1294:	3c c0       	rjmp	.+120    	; 0x130e <dtoa_prf+0xd4>
    1296:	91 11       	cpse	r25, r1
    1298:	02 c0       	rjmp	.+4      	; 0x129e <dtoa_prf+0x64>
    129a:	83 e0       	ldi	r24, 0x03	; 3
    129c:	01 c0       	rjmp	.+2      	; 0x12a0 <dtoa_prf+0x66>
    129e:	84 e0       	ldi	r24, 0x04	; 4
    12a0:	81 17       	cp	r24, r17
    12a2:	18 f4       	brcc	.+6      	; 0x12aa <dtoa_prf+0x70>
    12a4:	21 2f       	mov	r18, r17
    12a6:	28 1b       	sub	r18, r24
    12a8:	01 c0       	rjmp	.+2      	; 0x12ac <dtoa_prf+0x72>
    12aa:	20 e0       	ldi	r18, 0x00	; 0
    12ac:	51 11       	cpse	r21, r1
    12ae:	0b c0       	rjmp	.+22     	; 0x12c6 <dtoa_prf+0x8c>
    12b0:	f6 01       	movw	r30, r12
    12b2:	82 2f       	mov	r24, r18
    12b4:	30 e2       	ldi	r19, 0x20	; 32
    12b6:	88 23       	and	r24, r24
    12b8:	19 f0       	breq	.+6      	; 0x12c0 <dtoa_prf+0x86>
    12ba:	31 93       	st	Z+, r19
    12bc:	81 50       	subi	r24, 0x01	; 1
    12be:	fb cf       	rjmp	.-10     	; 0x12b6 <dtoa_prf+0x7c>
    12c0:	c2 0e       	add	r12, r18
    12c2:	d1 1c       	adc	r13, r1
    12c4:	20 e0       	ldi	r18, 0x00	; 0
    12c6:	99 23       	and	r25, r25
    12c8:	29 f0       	breq	.+10     	; 0x12d4 <dtoa_prf+0x9a>
    12ca:	d6 01       	movw	r26, r12
    12cc:	9c 93       	st	X, r25
    12ce:	f6 01       	movw	r30, r12
    12d0:	31 96       	adiw	r30, 0x01	; 1
    12d2:	6f 01       	movw	r12, r30
    12d4:	c6 01       	movw	r24, r12
    12d6:	03 96       	adiw	r24, 0x03	; 3
    12d8:	e2 fe       	sbrs	r14, 2
    12da:	0a c0       	rjmp	.+20     	; 0x12f0 <dtoa_prf+0xb6>
    12dc:	3e e4       	ldi	r19, 0x4E	; 78
    12de:	d6 01       	movw	r26, r12
    12e0:	3c 93       	st	X, r19
    12e2:	41 e4       	ldi	r20, 0x41	; 65
    12e4:	11 96       	adiw	r26, 0x01	; 1
    12e6:	4c 93       	st	X, r20
    12e8:	11 97       	sbiw	r26, 0x01	; 1
    12ea:	12 96       	adiw	r26, 0x02	; 2
    12ec:	3c 93       	st	X, r19
    12ee:	06 c0       	rjmp	.+12     	; 0x12fc <dtoa_prf+0xc2>
    12f0:	3e e6       	ldi	r19, 0x6E	; 110
    12f2:	f6 01       	movw	r30, r12
    12f4:	30 83       	st	Z, r19
    12f6:	41 e6       	ldi	r20, 0x61	; 97
    12f8:	41 83       	std	Z+1, r20	; 0x01
    12fa:	32 83       	std	Z+2, r19	; 0x02
    12fc:	fc 01       	movw	r30, r24
    12fe:	32 2f       	mov	r19, r18
    1300:	40 e2       	ldi	r20, 0x20	; 32
    1302:	33 23       	and	r19, r19
    1304:	09 f4       	brne	.+2      	; 0x1308 <dtoa_prf+0xce>
    1306:	42 c0       	rjmp	.+132    	; 0x138c <dtoa_prf+0x152>
    1308:	41 93       	st	Z+, r20
    130a:	31 50       	subi	r19, 0x01	; 1
    130c:	fa cf       	rjmp	.-12     	; 0x1302 <dtoa_prf+0xc8>
    130e:	42 ff       	sbrs	r20, 2
    1310:	44 c0       	rjmp	.+136    	; 0x139a <dtoa_prf+0x160>
    1312:	91 11       	cpse	r25, r1
    1314:	02 c0       	rjmp	.+4      	; 0x131a <dtoa_prf+0xe0>
    1316:	83 e0       	ldi	r24, 0x03	; 3
    1318:	01 c0       	rjmp	.+2      	; 0x131c <dtoa_prf+0xe2>
    131a:	84 e0       	ldi	r24, 0x04	; 4
    131c:	81 17       	cp	r24, r17
    131e:	18 f4       	brcc	.+6      	; 0x1326 <dtoa_prf+0xec>
    1320:	21 2f       	mov	r18, r17
    1322:	28 1b       	sub	r18, r24
    1324:	01 c0       	rjmp	.+2      	; 0x1328 <dtoa_prf+0xee>
    1326:	20 e0       	ldi	r18, 0x00	; 0
    1328:	51 11       	cpse	r21, r1
    132a:	0b c0       	rjmp	.+22     	; 0x1342 <dtoa_prf+0x108>
    132c:	f6 01       	movw	r30, r12
    132e:	82 2f       	mov	r24, r18
    1330:	30 e2       	ldi	r19, 0x20	; 32
    1332:	88 23       	and	r24, r24
    1334:	19 f0       	breq	.+6      	; 0x133c <dtoa_prf+0x102>
    1336:	31 93       	st	Z+, r19
    1338:	81 50       	subi	r24, 0x01	; 1
    133a:	fb cf       	rjmp	.-10     	; 0x1332 <dtoa_prf+0xf8>
    133c:	c2 0e       	add	r12, r18
    133e:	d1 1c       	adc	r13, r1
    1340:	20 e0       	ldi	r18, 0x00	; 0
    1342:	99 23       	and	r25, r25
    1344:	29 f0       	breq	.+10     	; 0x1350 <dtoa_prf+0x116>
    1346:	d6 01       	movw	r26, r12
    1348:	9c 93       	st	X, r25
    134a:	f6 01       	movw	r30, r12
    134c:	31 96       	adiw	r30, 0x01	; 1
    134e:	6f 01       	movw	r12, r30
    1350:	c6 01       	movw	r24, r12
    1352:	03 96       	adiw	r24, 0x03	; 3
    1354:	e2 fe       	sbrs	r14, 2
    1356:	0b c0       	rjmp	.+22     	; 0x136e <dtoa_prf+0x134>
    1358:	39 e4       	ldi	r19, 0x49	; 73
    135a:	d6 01       	movw	r26, r12
    135c:	3c 93       	st	X, r19
    135e:	3e e4       	ldi	r19, 0x4E	; 78
    1360:	11 96       	adiw	r26, 0x01	; 1
    1362:	3c 93       	st	X, r19
    1364:	11 97       	sbiw	r26, 0x01	; 1
    1366:	36 e4       	ldi	r19, 0x46	; 70
    1368:	12 96       	adiw	r26, 0x02	; 2
    136a:	3c 93       	st	X, r19
    136c:	07 c0       	rjmp	.+14     	; 0x137c <dtoa_prf+0x142>
    136e:	39 e6       	ldi	r19, 0x69	; 105
    1370:	f6 01       	movw	r30, r12
    1372:	30 83       	st	Z, r19
    1374:	3e e6       	ldi	r19, 0x6E	; 110
    1376:	31 83       	std	Z+1, r19	; 0x01
    1378:	36 e6       	ldi	r19, 0x66	; 102
    137a:	32 83       	std	Z+2, r19	; 0x02
    137c:	fc 01       	movw	r30, r24
    137e:	32 2f       	mov	r19, r18
    1380:	40 e2       	ldi	r20, 0x20	; 32
    1382:	33 23       	and	r19, r19
    1384:	19 f0       	breq	.+6      	; 0x138c <dtoa_prf+0x152>
    1386:	41 93       	st	Z+, r20
    1388:	31 50       	subi	r19, 0x01	; 1
    138a:	fb cf       	rjmp	.-10     	; 0x1382 <dtoa_prf+0x148>
    138c:	fc 01       	movw	r30, r24
    138e:	e2 0f       	add	r30, r18
    1390:	f1 1d       	adc	r31, r1
    1392:	10 82       	st	Z, r1
    1394:	8e ef       	ldi	r24, 0xFE	; 254
    1396:	9f ef       	ldi	r25, 0xFF	; 255
    1398:	a6 c0       	rjmp	.+332    	; 0x14e6 <dtoa_prf+0x2ac>
    139a:	21 e0       	ldi	r18, 0x01	; 1
    139c:	30 e0       	ldi	r19, 0x00	; 0
    139e:	91 11       	cpse	r25, r1
    13a0:	02 c0       	rjmp	.+4      	; 0x13a6 <dtoa_prf+0x16c>
    13a2:	20 e0       	ldi	r18, 0x00	; 0
    13a4:	30 e0       	ldi	r19, 0x00	; 0
    13a6:	16 16       	cp	r1, r22
    13a8:	17 06       	cpc	r1, r23
    13aa:	1c f4       	brge	.+6      	; 0x13b2 <dtoa_prf+0x178>
    13ac:	fb 01       	movw	r30, r22
    13ae:	31 96       	adiw	r30, 0x01	; 1
    13b0:	02 c0       	rjmp	.+4      	; 0x13b6 <dtoa_prf+0x17c>
    13b2:	e1 e0       	ldi	r30, 0x01	; 1
    13b4:	f0 e0       	ldi	r31, 0x00	; 0
    13b6:	2e 0f       	add	r18, r30
    13b8:	3f 1f       	adc	r19, r31
    13ba:	bb 20       	and	r11, r11
    13bc:	21 f0       	breq	.+8      	; 0x13c6 <dtoa_prf+0x18c>
    13be:	eb 2d       	mov	r30, r11
    13c0:	f0 e0       	ldi	r31, 0x00	; 0
    13c2:	31 96       	adiw	r30, 0x01	; 1
    13c4:	02 c0       	rjmp	.+4      	; 0x13ca <dtoa_prf+0x190>
    13c6:	e0 e0       	ldi	r30, 0x00	; 0
    13c8:	f0 e0       	ldi	r31, 0x00	; 0
    13ca:	2e 0f       	add	r18, r30
    13cc:	3f 1f       	adc	r19, r31
    13ce:	e1 2f       	mov	r30, r17
    13d0:	f0 e0       	ldi	r31, 0x00	; 0
    13d2:	2e 17       	cp	r18, r30
    13d4:	3f 07       	cpc	r19, r31
    13d6:	1c f4       	brge	.+6      	; 0x13de <dtoa_prf+0x1a4>
    13d8:	12 1b       	sub	r17, r18
    13da:	21 2f       	mov	r18, r17
    13dc:	01 c0       	rjmp	.+2      	; 0x13e0 <dtoa_prf+0x1a6>
    13de:	20 e0       	ldi	r18, 0x00	; 0
    13e0:	8e 2d       	mov	r24, r14
    13e2:	88 71       	andi	r24, 0x18	; 24
    13e4:	59 f4       	brne	.+22     	; 0x13fc <dtoa_prf+0x1c2>
    13e6:	f6 01       	movw	r30, r12
    13e8:	82 2f       	mov	r24, r18
    13ea:	30 e2       	ldi	r19, 0x20	; 32
    13ec:	88 23       	and	r24, r24
    13ee:	19 f0       	breq	.+6      	; 0x13f6 <dtoa_prf+0x1bc>
    13f0:	31 93       	st	Z+, r19
    13f2:	81 50       	subi	r24, 0x01	; 1
    13f4:	fb cf       	rjmp	.-10     	; 0x13ec <dtoa_prf+0x1b2>
    13f6:	c2 0e       	add	r12, r18
    13f8:	d1 1c       	adc	r13, r1
    13fa:	20 e0       	ldi	r18, 0x00	; 0
    13fc:	99 23       	and	r25, r25
    13fe:	29 f0       	breq	.+10     	; 0x140a <dtoa_prf+0x1d0>
    1400:	d6 01       	movw	r26, r12
    1402:	9c 93       	st	X, r25
    1404:	f6 01       	movw	r30, r12
    1406:	31 96       	adiw	r30, 0x01	; 1
    1408:	6f 01       	movw	r12, r30
    140a:	51 11       	cpse	r21, r1
    140c:	0b c0       	rjmp	.+22     	; 0x1424 <dtoa_prf+0x1ea>
    140e:	f6 01       	movw	r30, r12
    1410:	82 2f       	mov	r24, r18
    1412:	90 e3       	ldi	r25, 0x30	; 48
    1414:	88 23       	and	r24, r24
    1416:	19 f0       	breq	.+6      	; 0x141e <dtoa_prf+0x1e4>
    1418:	91 93       	st	Z+, r25
    141a:	81 50       	subi	r24, 0x01	; 1
    141c:	fb cf       	rjmp	.-10     	; 0x1414 <dtoa_prf+0x1da>
    141e:	c2 0e       	add	r12, r18
    1420:	d1 1c       	adc	r13, r1
    1422:	20 e0       	ldi	r18, 0x00	; 0
    1424:	0f 2d       	mov	r16, r15
    1426:	06 0f       	add	r16, r22
    1428:	9a 81       	ldd	r25, Y+2	; 0x02
    142a:	34 2f       	mov	r19, r20
    142c:	30 71       	andi	r19, 0x10	; 16
    142e:	44 ff       	sbrs	r20, 4
    1430:	03 c0       	rjmp	.+6      	; 0x1438 <dtoa_prf+0x1fe>
    1432:	91 33       	cpi	r25, 0x31	; 49
    1434:	09 f4       	brne	.+2      	; 0x1438 <dtoa_prf+0x1fe>
    1436:	01 50       	subi	r16, 0x01	; 1
    1438:	10 16       	cp	r1, r16
    143a:	24 f4       	brge	.+8      	; 0x1444 <dtoa_prf+0x20a>
    143c:	09 30       	cpi	r16, 0x09	; 9
    143e:	18 f0       	brcs	.+6      	; 0x1446 <dtoa_prf+0x20c>
    1440:	08 e0       	ldi	r16, 0x08	; 8
    1442:	01 c0       	rjmp	.+2      	; 0x1446 <dtoa_prf+0x20c>
    1444:	01 e0       	ldi	r16, 0x01	; 1
    1446:	ab 01       	movw	r20, r22
    1448:	77 ff       	sbrs	r23, 7
    144a:	02 c0       	rjmp	.+4      	; 0x1450 <dtoa_prf+0x216>
    144c:	40 e0       	ldi	r20, 0x00	; 0
    144e:	50 e0       	ldi	r21, 0x00	; 0
    1450:	fb 01       	movw	r30, r22
    1452:	e4 1b       	sub	r30, r20
    1454:	f5 0b       	sbc	r31, r21
    1456:	a1 e0       	ldi	r26, 0x01	; 1
    1458:	b0 e0       	ldi	r27, 0x00	; 0
    145a:	ac 0f       	add	r26, r28
    145c:	bd 1f       	adc	r27, r29
    145e:	ea 0f       	add	r30, r26
    1460:	fb 1f       	adc	r31, r27
    1462:	8e e2       	ldi	r24, 0x2E	; 46
    1464:	a8 2e       	mov	r10, r24
    1466:	4b 01       	movw	r8, r22
    1468:	80 1a       	sub	r8, r16
    146a:	91 08       	sbc	r9, r1
    146c:	0b 2d       	mov	r16, r11
    146e:	10 e0       	ldi	r17, 0x00	; 0
    1470:	11 95       	neg	r17
    1472:	01 95       	neg	r16
    1474:	11 09       	sbc	r17, r1
    1476:	4f 3f       	cpi	r20, 0xFF	; 255
    1478:	bf ef       	ldi	r27, 0xFF	; 255
    147a:	5b 07       	cpc	r21, r27
    147c:	21 f4       	brne	.+8      	; 0x1486 <dtoa_prf+0x24c>
    147e:	d6 01       	movw	r26, r12
    1480:	ac 92       	st	X, r10
    1482:	11 96       	adiw	r26, 0x01	; 1
    1484:	6d 01       	movw	r12, r26
    1486:	64 17       	cp	r22, r20
    1488:	75 07       	cpc	r23, r21
    148a:	2c f0       	brlt	.+10     	; 0x1496 <dtoa_prf+0x25c>
    148c:	84 16       	cp	r8, r20
    148e:	95 06       	cpc	r9, r21
    1490:	14 f4       	brge	.+4      	; 0x1496 <dtoa_prf+0x25c>
    1492:	81 81       	ldd	r24, Z+1	; 0x01
    1494:	01 c0       	rjmp	.+2      	; 0x1498 <dtoa_prf+0x25e>
    1496:	80 e3       	ldi	r24, 0x30	; 48
    1498:	41 50       	subi	r20, 0x01	; 1
    149a:	51 09       	sbc	r21, r1
    149c:	31 96       	adiw	r30, 0x01	; 1
    149e:	d6 01       	movw	r26, r12
    14a0:	11 96       	adiw	r26, 0x01	; 1
    14a2:	7d 01       	movw	r14, r26
    14a4:	40 17       	cp	r20, r16
    14a6:	51 07       	cpc	r21, r17
    14a8:	24 f0       	brlt	.+8      	; 0x14b2 <dtoa_prf+0x278>
    14aa:	d6 01       	movw	r26, r12
    14ac:	8c 93       	st	X, r24
    14ae:	67 01       	movw	r12, r14
    14b0:	e2 cf       	rjmp	.-60     	; 0x1476 <dtoa_prf+0x23c>
    14b2:	64 17       	cp	r22, r20
    14b4:	75 07       	cpc	r23, r21
    14b6:	39 f4       	brne	.+14     	; 0x14c6 <dtoa_prf+0x28c>
    14b8:	96 33       	cpi	r25, 0x36	; 54
    14ba:	20 f4       	brcc	.+8      	; 0x14c4 <dtoa_prf+0x28a>
    14bc:	95 33       	cpi	r25, 0x35	; 53
    14be:	19 f4       	brne	.+6      	; 0x14c6 <dtoa_prf+0x28c>
    14c0:	31 11       	cpse	r19, r1
    14c2:	01 c0       	rjmp	.+2      	; 0x14c6 <dtoa_prf+0x28c>
    14c4:	81 e3       	ldi	r24, 0x31	; 49
    14c6:	f6 01       	movw	r30, r12
    14c8:	80 83       	st	Z, r24
    14ca:	f7 01       	movw	r30, r14
    14cc:	82 2f       	mov	r24, r18
    14ce:	90 e2       	ldi	r25, 0x20	; 32
    14d0:	88 23       	and	r24, r24
    14d2:	19 f0       	breq	.+6      	; 0x14da <dtoa_prf+0x2a0>
    14d4:	91 93       	st	Z+, r25
    14d6:	81 50       	subi	r24, 0x01	; 1
    14d8:	fb cf       	rjmp	.-10     	; 0x14d0 <dtoa_prf+0x296>
    14da:	f7 01       	movw	r30, r14
    14dc:	e2 0f       	add	r30, r18
    14de:	f1 1d       	adc	r31, r1
    14e0:	10 82       	st	Z, r1
    14e2:	80 e0       	ldi	r24, 0x00	; 0
    14e4:	90 e0       	ldi	r25, 0x00	; 0
    14e6:	29 96       	adiw	r28, 0x09	; 9
    14e8:	ec e0       	ldi	r30, 0x0C	; 12
    14ea:	0c 94 21 0c 	jmp	0x1842	; 0x1842 <__epilogue_restores__+0xc>

000014ee <__ftoa_engine>:
    14ee:	28 30       	cpi	r18, 0x08	; 8
    14f0:	08 f0       	brcs	.+2      	; 0x14f4 <__ftoa_engine+0x6>
    14f2:	27 e0       	ldi	r18, 0x07	; 7
    14f4:	33 27       	eor	r19, r19
    14f6:	da 01       	movw	r26, r20
    14f8:	99 0f       	add	r25, r25
    14fa:	31 1d       	adc	r19, r1
    14fc:	87 fd       	sbrc	r24, 7
    14fe:	91 60       	ori	r25, 0x01	; 1
    1500:	00 96       	adiw	r24, 0x00	; 0
    1502:	61 05       	cpc	r22, r1
    1504:	71 05       	cpc	r23, r1
    1506:	39 f4       	brne	.+14     	; 0x1516 <__ftoa_engine+0x28>
    1508:	32 60       	ori	r19, 0x02	; 2
    150a:	2e 5f       	subi	r18, 0xFE	; 254
    150c:	3d 93       	st	X+, r19
    150e:	30 e3       	ldi	r19, 0x30	; 48
    1510:	2a 95       	dec	r18
    1512:	e1 f7       	brne	.-8      	; 0x150c <__ftoa_engine+0x1e>
    1514:	08 95       	ret
    1516:	9f 3f       	cpi	r25, 0xFF	; 255
    1518:	30 f0       	brcs	.+12     	; 0x1526 <__ftoa_engine+0x38>
    151a:	80 38       	cpi	r24, 0x80	; 128
    151c:	71 05       	cpc	r23, r1
    151e:	61 05       	cpc	r22, r1
    1520:	09 f0       	breq	.+2      	; 0x1524 <__ftoa_engine+0x36>
    1522:	3c 5f       	subi	r19, 0xFC	; 252
    1524:	3c 5f       	subi	r19, 0xFC	; 252
    1526:	3d 93       	st	X+, r19
    1528:	91 30       	cpi	r25, 0x01	; 1
    152a:	08 f0       	brcs	.+2      	; 0x152e <__ftoa_engine+0x40>
    152c:	80 68       	ori	r24, 0x80	; 128
    152e:	91 1d       	adc	r25, r1
    1530:	df 93       	push	r29
    1532:	cf 93       	push	r28
    1534:	1f 93       	push	r17
    1536:	0f 93       	push	r16
    1538:	ff 92       	push	r15
    153a:	ef 92       	push	r14
    153c:	19 2f       	mov	r17, r25
    153e:	98 7f       	andi	r25, 0xF8	; 248
    1540:	96 95       	lsr	r25
    1542:	e9 2f       	mov	r30, r25
    1544:	96 95       	lsr	r25
    1546:	96 95       	lsr	r25
    1548:	e9 0f       	add	r30, r25
    154a:	ff 27       	eor	r31, r31
    154c:	e2 55       	subi	r30, 0x52	; 82
    154e:	ff 4f       	sbci	r31, 0xFF	; 255
    1550:	99 27       	eor	r25, r25
    1552:	33 27       	eor	r19, r19
    1554:	ee 24       	eor	r14, r14
    1556:	ff 24       	eor	r15, r15
    1558:	a7 01       	movw	r20, r14
    155a:	e7 01       	movw	r28, r14
    155c:	05 90       	lpm	r0, Z+
    155e:	08 94       	sec
    1560:	07 94       	ror	r0
    1562:	28 f4       	brcc	.+10     	; 0x156e <__ftoa_engine+0x80>
    1564:	36 0f       	add	r19, r22
    1566:	e7 1e       	adc	r14, r23
    1568:	f8 1e       	adc	r15, r24
    156a:	49 1f       	adc	r20, r25
    156c:	51 1d       	adc	r21, r1
    156e:	66 0f       	add	r22, r22
    1570:	77 1f       	adc	r23, r23
    1572:	88 1f       	adc	r24, r24
    1574:	99 1f       	adc	r25, r25
    1576:	06 94       	lsr	r0
    1578:	a1 f7       	brne	.-24     	; 0x1562 <__ftoa_engine+0x74>
    157a:	05 90       	lpm	r0, Z+
    157c:	07 94       	ror	r0
    157e:	28 f4       	brcc	.+10     	; 0x158a <__ftoa_engine+0x9c>
    1580:	e7 0e       	add	r14, r23
    1582:	f8 1e       	adc	r15, r24
    1584:	49 1f       	adc	r20, r25
    1586:	56 1f       	adc	r21, r22
    1588:	c1 1d       	adc	r28, r1
    158a:	77 0f       	add	r23, r23
    158c:	88 1f       	adc	r24, r24
    158e:	99 1f       	adc	r25, r25
    1590:	66 1f       	adc	r22, r22
    1592:	06 94       	lsr	r0
    1594:	a1 f7       	brne	.-24     	; 0x157e <__ftoa_engine+0x90>
    1596:	05 90       	lpm	r0, Z+
    1598:	07 94       	ror	r0
    159a:	28 f4       	brcc	.+10     	; 0x15a6 <__ftoa_engine+0xb8>
    159c:	f8 0e       	add	r15, r24
    159e:	49 1f       	adc	r20, r25
    15a0:	56 1f       	adc	r21, r22
    15a2:	c7 1f       	adc	r28, r23
    15a4:	d1 1d       	adc	r29, r1
    15a6:	88 0f       	add	r24, r24
    15a8:	99 1f       	adc	r25, r25
    15aa:	66 1f       	adc	r22, r22
    15ac:	77 1f       	adc	r23, r23
    15ae:	06 94       	lsr	r0
    15b0:	a1 f7       	brne	.-24     	; 0x159a <__ftoa_engine+0xac>
    15b2:	05 90       	lpm	r0, Z+
    15b4:	07 94       	ror	r0
    15b6:	20 f4       	brcc	.+8      	; 0x15c0 <__ftoa_engine+0xd2>
    15b8:	49 0f       	add	r20, r25
    15ba:	56 1f       	adc	r21, r22
    15bc:	c7 1f       	adc	r28, r23
    15be:	d8 1f       	adc	r29, r24
    15c0:	99 0f       	add	r25, r25
    15c2:	66 1f       	adc	r22, r22
    15c4:	77 1f       	adc	r23, r23
    15c6:	88 1f       	adc	r24, r24
    15c8:	06 94       	lsr	r0
    15ca:	a9 f7       	brne	.-22     	; 0x15b6 <__ftoa_engine+0xc8>
    15cc:	84 91       	lpm	r24, Z
    15ce:	10 95       	com	r17
    15d0:	17 70       	andi	r17, 0x07	; 7
    15d2:	41 f0       	breq	.+16     	; 0x15e4 <__ftoa_engine+0xf6>
    15d4:	d6 95       	lsr	r29
    15d6:	c7 95       	ror	r28
    15d8:	57 95       	ror	r21
    15da:	47 95       	ror	r20
    15dc:	f7 94       	ror	r15
    15de:	e7 94       	ror	r14
    15e0:	1a 95       	dec	r17
    15e2:	c1 f7       	brne	.-16     	; 0x15d4 <__ftoa_engine+0xe6>
    15e4:	e4 e5       	ldi	r30, 0x54	; 84
    15e6:	f0 e0       	ldi	r31, 0x00	; 0
    15e8:	68 94       	set
    15ea:	15 90       	lpm	r1, Z+
    15ec:	15 91       	lpm	r17, Z+
    15ee:	35 91       	lpm	r19, Z+
    15f0:	65 91       	lpm	r22, Z+
    15f2:	95 91       	lpm	r25, Z+
    15f4:	05 90       	lpm	r0, Z+
    15f6:	7f e2       	ldi	r23, 0x2F	; 47
    15f8:	73 95       	inc	r23
    15fa:	e1 18       	sub	r14, r1
    15fc:	f1 0a       	sbc	r15, r17
    15fe:	43 0b       	sbc	r20, r19
    1600:	56 0b       	sbc	r21, r22
    1602:	c9 0b       	sbc	r28, r25
    1604:	d0 09       	sbc	r29, r0
    1606:	c0 f7       	brcc	.-16     	; 0x15f8 <__ftoa_engine+0x10a>
    1608:	e1 0c       	add	r14, r1
    160a:	f1 1e       	adc	r15, r17
    160c:	43 1f       	adc	r20, r19
    160e:	56 1f       	adc	r21, r22
    1610:	c9 1f       	adc	r28, r25
    1612:	d0 1d       	adc	r29, r0
    1614:	7e f4       	brtc	.+30     	; 0x1634 <__ftoa_engine+0x146>
    1616:	70 33       	cpi	r23, 0x30	; 48
    1618:	11 f4       	brne	.+4      	; 0x161e <__ftoa_engine+0x130>
    161a:	8a 95       	dec	r24
    161c:	e6 cf       	rjmp	.-52     	; 0x15ea <__ftoa_engine+0xfc>
    161e:	e8 94       	clt
    1620:	01 50       	subi	r16, 0x01	; 1
    1622:	30 f0       	brcs	.+12     	; 0x1630 <__ftoa_engine+0x142>
    1624:	08 0f       	add	r16, r24
    1626:	0a f4       	brpl	.+2      	; 0x162a <__ftoa_engine+0x13c>
    1628:	00 27       	eor	r16, r16
    162a:	02 17       	cp	r16, r18
    162c:	08 f4       	brcc	.+2      	; 0x1630 <__ftoa_engine+0x142>
    162e:	20 2f       	mov	r18, r16
    1630:	23 95       	inc	r18
    1632:	02 2f       	mov	r16, r18
    1634:	7a 33       	cpi	r23, 0x3A	; 58
    1636:	28 f0       	brcs	.+10     	; 0x1642 <__ftoa_engine+0x154>
    1638:	79 e3       	ldi	r23, 0x39	; 57
    163a:	7d 93       	st	X+, r23
    163c:	2a 95       	dec	r18
    163e:	e9 f7       	brne	.-6      	; 0x163a <__ftoa_engine+0x14c>
    1640:	10 c0       	rjmp	.+32     	; 0x1662 <__ftoa_engine+0x174>
    1642:	7d 93       	st	X+, r23
    1644:	2a 95       	dec	r18
    1646:	89 f6       	brne	.-94     	; 0x15ea <__ftoa_engine+0xfc>
    1648:	06 94       	lsr	r0
    164a:	97 95       	ror	r25
    164c:	67 95       	ror	r22
    164e:	37 95       	ror	r19
    1650:	17 95       	ror	r17
    1652:	17 94       	ror	r1
    1654:	e1 18       	sub	r14, r1
    1656:	f1 0a       	sbc	r15, r17
    1658:	43 0b       	sbc	r20, r19
    165a:	56 0b       	sbc	r21, r22
    165c:	c9 0b       	sbc	r28, r25
    165e:	d0 09       	sbc	r29, r0
    1660:	98 f0       	brcs	.+38     	; 0x1688 <__ftoa_engine+0x19a>
    1662:	23 95       	inc	r18
    1664:	7e 91       	ld	r23, -X
    1666:	73 95       	inc	r23
    1668:	7a 33       	cpi	r23, 0x3A	; 58
    166a:	08 f0       	brcs	.+2      	; 0x166e <__ftoa_engine+0x180>
    166c:	70 e3       	ldi	r23, 0x30	; 48
    166e:	7c 93       	st	X, r23
    1670:	20 13       	cpse	r18, r16
    1672:	b8 f7       	brcc	.-18     	; 0x1662 <__ftoa_engine+0x174>
    1674:	7e 91       	ld	r23, -X
    1676:	70 61       	ori	r23, 0x10	; 16
    1678:	7d 93       	st	X+, r23
    167a:	30 f0       	brcs	.+12     	; 0x1688 <__ftoa_engine+0x19a>
    167c:	83 95       	inc	r24
    167e:	71 e3       	ldi	r23, 0x31	; 49
    1680:	7d 93       	st	X+, r23
    1682:	70 e3       	ldi	r23, 0x30	; 48
    1684:	2a 95       	dec	r18
    1686:	e1 f7       	brne	.-8      	; 0x1680 <__ftoa_engine+0x192>
    1688:	11 24       	eor	r1, r1
    168a:	ef 90       	pop	r14
    168c:	ff 90       	pop	r15
    168e:	0f 91       	pop	r16
    1690:	1f 91       	pop	r17
    1692:	cf 91       	pop	r28
    1694:	df 91       	pop	r29
    1696:	99 27       	eor	r25, r25
    1698:	87 fd       	sbrc	r24, 7
    169a:	90 95       	com	r25
    169c:	08 95       	ret

0000169e <strnlen_P>:
    169e:	fc 01       	movw	r30, r24
    16a0:	05 90       	lpm	r0, Z+
    16a2:	61 50       	subi	r22, 0x01	; 1
    16a4:	70 40       	sbci	r23, 0x00	; 0
    16a6:	01 10       	cpse	r0, r1
    16a8:	d8 f7       	brcc	.-10     	; 0x16a0 <strnlen_P+0x2>
    16aa:	80 95       	com	r24
    16ac:	90 95       	com	r25
    16ae:	8e 0f       	add	r24, r30
    16b0:	9f 1f       	adc	r25, r31
    16b2:	08 95       	ret

000016b4 <strnlen>:
    16b4:	fc 01       	movw	r30, r24
    16b6:	61 50       	subi	r22, 0x01	; 1
    16b8:	70 40       	sbci	r23, 0x00	; 0
    16ba:	01 90       	ld	r0, Z+
    16bc:	01 10       	cpse	r0, r1
    16be:	d8 f7       	brcc	.-10     	; 0x16b6 <strnlen+0x2>
    16c0:	80 95       	com	r24
    16c2:	90 95       	com	r25
    16c4:	8e 0f       	add	r24, r30
    16c6:	9f 1f       	adc	r25, r31
    16c8:	08 95       	ret

000016ca <fputc>:
    16ca:	0f 93       	push	r16
    16cc:	1f 93       	push	r17
    16ce:	cf 93       	push	r28
    16d0:	df 93       	push	r29
    16d2:	fb 01       	movw	r30, r22
    16d4:	23 81       	ldd	r18, Z+3	; 0x03
    16d6:	21 fd       	sbrc	r18, 1
    16d8:	03 c0       	rjmp	.+6      	; 0x16e0 <fputc+0x16>
    16da:	8f ef       	ldi	r24, 0xFF	; 255
    16dc:	9f ef       	ldi	r25, 0xFF	; 255
    16de:	2c c0       	rjmp	.+88     	; 0x1738 <fputc+0x6e>
    16e0:	22 ff       	sbrs	r18, 2
    16e2:	16 c0       	rjmp	.+44     	; 0x1710 <fputc+0x46>
    16e4:	46 81       	ldd	r20, Z+6	; 0x06
    16e6:	57 81       	ldd	r21, Z+7	; 0x07
    16e8:	24 81       	ldd	r18, Z+4	; 0x04
    16ea:	35 81       	ldd	r19, Z+5	; 0x05
    16ec:	42 17       	cp	r20, r18
    16ee:	53 07       	cpc	r21, r19
    16f0:	44 f4       	brge	.+16     	; 0x1702 <fputc+0x38>
    16f2:	a0 81       	ld	r26, Z
    16f4:	b1 81       	ldd	r27, Z+1	; 0x01
    16f6:	9d 01       	movw	r18, r26
    16f8:	2f 5f       	subi	r18, 0xFF	; 255
    16fa:	3f 4f       	sbci	r19, 0xFF	; 255
    16fc:	31 83       	std	Z+1, r19	; 0x01
    16fe:	20 83       	st	Z, r18
    1700:	8c 93       	st	X, r24
    1702:	26 81       	ldd	r18, Z+6	; 0x06
    1704:	37 81       	ldd	r19, Z+7	; 0x07
    1706:	2f 5f       	subi	r18, 0xFF	; 255
    1708:	3f 4f       	sbci	r19, 0xFF	; 255
    170a:	37 83       	std	Z+7, r19	; 0x07
    170c:	26 83       	std	Z+6, r18	; 0x06
    170e:	14 c0       	rjmp	.+40     	; 0x1738 <fputc+0x6e>
    1710:	8b 01       	movw	r16, r22
    1712:	ec 01       	movw	r28, r24
    1714:	fb 01       	movw	r30, r22
    1716:	00 84       	ldd	r0, Z+8	; 0x08
    1718:	f1 85       	ldd	r31, Z+9	; 0x09
    171a:	e0 2d       	mov	r30, r0
    171c:	09 95       	icall
    171e:	89 2b       	or	r24, r25
    1720:	e1 f6       	brne	.-72     	; 0x16da <fputc+0x10>
    1722:	d8 01       	movw	r26, r16
    1724:	16 96       	adiw	r26, 0x06	; 6
    1726:	8d 91       	ld	r24, X+
    1728:	9c 91       	ld	r25, X
    172a:	17 97       	sbiw	r26, 0x07	; 7
    172c:	01 96       	adiw	r24, 0x01	; 1
    172e:	17 96       	adiw	r26, 0x07	; 7
    1730:	9c 93       	st	X, r25
    1732:	8e 93       	st	-X, r24
    1734:	16 97       	sbiw	r26, 0x06	; 6
    1736:	ce 01       	movw	r24, r28
    1738:	df 91       	pop	r29
    173a:	cf 91       	pop	r28
    173c:	1f 91       	pop	r17
    173e:	0f 91       	pop	r16
    1740:	08 95       	ret

00001742 <__ultoa_invert>:
    1742:	fa 01       	movw	r30, r20
    1744:	aa 27       	eor	r26, r26
    1746:	28 30       	cpi	r18, 0x08	; 8
    1748:	51 f1       	breq	.+84     	; 0x179e <__ultoa_invert+0x5c>
    174a:	20 31       	cpi	r18, 0x10	; 16
    174c:	81 f1       	breq	.+96     	; 0x17ae <__ultoa_invert+0x6c>
    174e:	e8 94       	clt
    1750:	6f 93       	push	r22
    1752:	6e 7f       	andi	r22, 0xFE	; 254
    1754:	6e 5f       	subi	r22, 0xFE	; 254
    1756:	7f 4f       	sbci	r23, 0xFF	; 255
    1758:	8f 4f       	sbci	r24, 0xFF	; 255
    175a:	9f 4f       	sbci	r25, 0xFF	; 255
    175c:	af 4f       	sbci	r26, 0xFF	; 255
    175e:	b1 e0       	ldi	r27, 0x01	; 1
    1760:	3e d0       	rcall	.+124    	; 0x17de <__ultoa_invert+0x9c>
    1762:	b4 e0       	ldi	r27, 0x04	; 4
    1764:	3c d0       	rcall	.+120    	; 0x17de <__ultoa_invert+0x9c>
    1766:	67 0f       	add	r22, r23
    1768:	78 1f       	adc	r23, r24
    176a:	89 1f       	adc	r24, r25
    176c:	9a 1f       	adc	r25, r26
    176e:	a1 1d       	adc	r26, r1
    1770:	68 0f       	add	r22, r24
    1772:	79 1f       	adc	r23, r25
    1774:	8a 1f       	adc	r24, r26
    1776:	91 1d       	adc	r25, r1
    1778:	a1 1d       	adc	r26, r1
    177a:	6a 0f       	add	r22, r26
    177c:	71 1d       	adc	r23, r1
    177e:	81 1d       	adc	r24, r1
    1780:	91 1d       	adc	r25, r1
    1782:	a1 1d       	adc	r26, r1
    1784:	20 d0       	rcall	.+64     	; 0x17c6 <__ultoa_invert+0x84>
    1786:	09 f4       	brne	.+2      	; 0x178a <__ultoa_invert+0x48>
    1788:	68 94       	set
    178a:	3f 91       	pop	r19
    178c:	2a e0       	ldi	r18, 0x0A	; 10
    178e:	26 9f       	mul	r18, r22
    1790:	11 24       	eor	r1, r1
    1792:	30 19       	sub	r19, r0
    1794:	30 5d       	subi	r19, 0xD0	; 208
    1796:	31 93       	st	Z+, r19
    1798:	de f6       	brtc	.-74     	; 0x1750 <__ultoa_invert+0xe>
    179a:	cf 01       	movw	r24, r30
    179c:	08 95       	ret
    179e:	46 2f       	mov	r20, r22
    17a0:	47 70       	andi	r20, 0x07	; 7
    17a2:	40 5d       	subi	r20, 0xD0	; 208
    17a4:	41 93       	st	Z+, r20
    17a6:	b3 e0       	ldi	r27, 0x03	; 3
    17a8:	0f d0       	rcall	.+30     	; 0x17c8 <__ultoa_invert+0x86>
    17aa:	c9 f7       	brne	.-14     	; 0x179e <__ultoa_invert+0x5c>
    17ac:	f6 cf       	rjmp	.-20     	; 0x179a <__ultoa_invert+0x58>
    17ae:	46 2f       	mov	r20, r22
    17b0:	4f 70       	andi	r20, 0x0F	; 15
    17b2:	40 5d       	subi	r20, 0xD0	; 208
    17b4:	4a 33       	cpi	r20, 0x3A	; 58
    17b6:	18 f0       	brcs	.+6      	; 0x17be <__ultoa_invert+0x7c>
    17b8:	49 5d       	subi	r20, 0xD9	; 217
    17ba:	31 fd       	sbrc	r19, 1
    17bc:	40 52       	subi	r20, 0x20	; 32
    17be:	41 93       	st	Z+, r20
    17c0:	02 d0       	rcall	.+4      	; 0x17c6 <__ultoa_invert+0x84>
    17c2:	a9 f7       	brne	.-22     	; 0x17ae <__ultoa_invert+0x6c>
    17c4:	ea cf       	rjmp	.-44     	; 0x179a <__ultoa_invert+0x58>
    17c6:	b4 e0       	ldi	r27, 0x04	; 4
    17c8:	a6 95       	lsr	r26
    17ca:	97 95       	ror	r25
    17cc:	87 95       	ror	r24
    17ce:	77 95       	ror	r23
    17d0:	67 95       	ror	r22
    17d2:	ba 95       	dec	r27
    17d4:	c9 f7       	brne	.-14     	; 0x17c8 <__ultoa_invert+0x86>
    17d6:	00 97       	sbiw	r24, 0x00	; 0
    17d8:	61 05       	cpc	r22, r1
    17da:	71 05       	cpc	r23, r1
    17dc:	08 95       	ret
    17de:	9b 01       	movw	r18, r22
    17e0:	ac 01       	movw	r20, r24
    17e2:	0a 2e       	mov	r0, r26
    17e4:	06 94       	lsr	r0
    17e6:	57 95       	ror	r21
    17e8:	47 95       	ror	r20
    17ea:	37 95       	ror	r19
    17ec:	27 95       	ror	r18
    17ee:	ba 95       	dec	r27
    17f0:	c9 f7       	brne	.-14     	; 0x17e4 <__ultoa_invert+0xa2>
    17f2:	62 0f       	add	r22, r18
    17f4:	73 1f       	adc	r23, r19
    17f6:	84 1f       	adc	r24, r20
    17f8:	95 1f       	adc	r25, r21
    17fa:	a0 1d       	adc	r26, r0
    17fc:	08 95       	ret

000017fe <__prologue_saves__>:
    17fe:	2f 92       	push	r2
    1800:	3f 92       	push	r3
    1802:	4f 92       	push	r4
    1804:	5f 92       	push	r5
    1806:	6f 92       	push	r6
    1808:	7f 92       	push	r7
    180a:	8f 92       	push	r8
    180c:	9f 92       	push	r9
    180e:	af 92       	push	r10
    1810:	bf 92       	push	r11
    1812:	cf 92       	push	r12
    1814:	df 92       	push	r13
    1816:	ef 92       	push	r14
    1818:	ff 92       	push	r15
    181a:	0f 93       	push	r16
    181c:	1f 93       	push	r17
    181e:	cf 93       	push	r28
    1820:	df 93       	push	r29
    1822:	cd b7       	in	r28, 0x3d	; 61
    1824:	de b7       	in	r29, 0x3e	; 62
    1826:	ca 1b       	sub	r28, r26
    1828:	db 0b       	sbc	r29, r27
    182a:	0f b6       	in	r0, 0x3f	; 63
    182c:	f8 94       	cli
    182e:	de bf       	out	0x3e, r29	; 62
    1830:	0f be       	out	0x3f, r0	; 63
    1832:	cd bf       	out	0x3d, r28	; 61
    1834:	09 94       	ijmp

00001836 <__epilogue_restores__>:
    1836:	2a 88       	ldd	r2, Y+18	; 0x12
    1838:	39 88       	ldd	r3, Y+17	; 0x11
    183a:	48 88       	ldd	r4, Y+16	; 0x10
    183c:	5f 84       	ldd	r5, Y+15	; 0x0f
    183e:	6e 84       	ldd	r6, Y+14	; 0x0e
    1840:	7d 84       	ldd	r7, Y+13	; 0x0d
    1842:	8c 84       	ldd	r8, Y+12	; 0x0c
    1844:	9b 84       	ldd	r9, Y+11	; 0x0b
    1846:	aa 84       	ldd	r10, Y+10	; 0x0a
    1848:	b9 84       	ldd	r11, Y+9	; 0x09
    184a:	c8 84       	ldd	r12, Y+8	; 0x08
    184c:	df 80       	ldd	r13, Y+7	; 0x07
    184e:	ee 80       	ldd	r14, Y+6	; 0x06
    1850:	fd 80       	ldd	r15, Y+5	; 0x05
    1852:	0c 81       	ldd	r16, Y+4	; 0x04
    1854:	1b 81       	ldd	r17, Y+3	; 0x03
    1856:	aa 81       	ldd	r26, Y+2	; 0x02
    1858:	b9 81       	ldd	r27, Y+1	; 0x01
    185a:	ce 0f       	add	r28, r30
    185c:	d1 1d       	adc	r29, r1
    185e:	0f b6       	in	r0, 0x3f	; 63
    1860:	f8 94       	cli
    1862:	de bf       	out	0x3e, r29	; 62
    1864:	0f be       	out	0x3f, r0	; 63
    1866:	cd bf       	out	0x3d, r28	; 61
    1868:	ed 01       	movw	r28, r26
    186a:	08 95       	ret

0000186c <_exit>:
    186c:	f8 94       	cli

0000186e <__stop_program>:
    186e:	ff cf       	rjmp	.-2      	; 0x186e <__stop_program>
